Archive member included because of file (symbol)

c:/gcc_arm/49/bin/../lib/gcc/arm-none-eabi/4.9.3/../../../../arm-none-eabi/lib/armv7e-m/fpu\libm.a(lib_a-s_ceil.o)
                              ..\obj\INA219.o (ceil)
c:/gcc_arm/49/bin/../lib/gcc/arm-none-eabi/4.9.3/../../../../arm-none-eabi/lib/armv7e-m/fpu\libm.a(lib_a-s_cos.o)
                              ..\obj\tm_stm32f4_gps.o (cos)
c:/gcc_arm/49/bin/../lib/gcc/arm-none-eabi/4.9.3/../../../../arm-none-eabi/lib/armv7e-m/fpu\libm.a(lib_a-s_sin.o)
                              ..\obj\tm_stm32f4_gps.o (sin)
c:/gcc_arm/49/bin/../lib/gcc/arm-none-eabi/4.9.3/../../../../arm-none-eabi/lib/armv7e-m/fpu\libm.a(lib_a-w_atan2.o)
                              ..\obj\tm_stm32f4_gps.o (atan2)
c:/gcc_arm/49/bin/../lib/gcc/arm-none-eabi/4.9.3/../../../../arm-none-eabi/lib/armv7e-m/fpu\libm.a(lib_a-w_pow.o)
                              ..\obj\udp_echoclient.o (pow)
c:/gcc_arm/49/bin/../lib/gcc/arm-none-eabi/4.9.3/../../../../arm-none-eabi/lib/armv7e-m/fpu\libm.a(lib_a-w_sqrt.o)
                              ..\obj\tm_stm32f4_gps.o (sqrt)
c:/gcc_arm/49/bin/../lib/gcc/arm-none-eabi/4.9.3/../../../../arm-none-eabi/lib/armv7e-m/fpu\libm.a(lib_a-wf_log10.o)
                              ..\obj\sfp.o (log10f)
c:/gcc_arm/49/bin/../lib/gcc/arm-none-eabi/4.9.3/../../../../arm-none-eabi/lib/armv7e-m/fpu\libm.a(lib_a-e_atan2.o)
                              c:/gcc_arm/49/bin/../lib/gcc/arm-none-eabi/4.9.3/../../../../arm-none-eabi/lib/armv7e-m/fpu\libm.a(lib_a-w_atan2.o) (__ieee754_atan2)
c:/gcc_arm/49/bin/../lib/gcc/arm-none-eabi/4.9.3/../../../../arm-none-eabi/lib/armv7e-m/fpu\libm.a(lib_a-e_pow.o)
                              c:/gcc_arm/49/bin/../lib/gcc/arm-none-eabi/4.9.3/../../../../arm-none-eabi/lib/armv7e-m/fpu\libm.a(lib_a-w_pow.o) (__ieee754_pow)
c:/gcc_arm/49/bin/../lib/gcc/arm-none-eabi/4.9.3/../../../../arm-none-eabi/lib/armv7e-m/fpu\libm.a(lib_a-e_rem_pio2.o)
                              c:/gcc_arm/49/bin/../lib/gcc/arm-none-eabi/4.9.3/../../../../arm-none-eabi/lib/armv7e-m/fpu\libm.a(lib_a-s_cos.o) (__ieee754_rem_pio2)
c:/gcc_arm/49/bin/../lib/gcc/arm-none-eabi/4.9.3/../../../../arm-none-eabi/lib/armv7e-m/fpu\libm.a(lib_a-e_sqrt.o)
                              c:/gcc_arm/49/bin/../lib/gcc/arm-none-eabi/4.9.3/../../../../arm-none-eabi/lib/armv7e-m/fpu\libm.a(lib_a-w_sqrt.o) (__ieee754_sqrt)
c:/gcc_arm/49/bin/../lib/gcc/arm-none-eabi/4.9.3/../../../../arm-none-eabi/lib/armv7e-m/fpu\libm.a(lib_a-ef_log10.o)
                              c:/gcc_arm/49/bin/../lib/gcc/arm-none-eabi/4.9.3/../../../../arm-none-eabi/lib/armv7e-m/fpu\libm.a(lib_a-wf_log10.o) (__ieee754_log10f)
c:/gcc_arm/49/bin/../lib/gcc/arm-none-eabi/4.9.3/../../../../arm-none-eabi/lib/armv7e-m/fpu\libm.a(lib_a-k_cos.o)
                              c:/gcc_arm/49/bin/../lib/gcc/arm-none-eabi/4.9.3/../../../../arm-none-eabi/lib/armv7e-m/fpu\libm.a(lib_a-s_cos.o) (__kernel_cos)
c:/gcc_arm/49/bin/../lib/gcc/arm-none-eabi/4.9.3/../../../../arm-none-eabi/lib/armv7e-m/fpu\libm.a(lib_a-k_rem_pio2.o)
                              c:/gcc_arm/49/bin/../lib/gcc/arm-none-eabi/4.9.3/../../../../arm-none-eabi/lib/armv7e-m/fpu\libm.a(lib_a-e_rem_pio2.o) (__kernel_rem_pio2)
c:/gcc_arm/49/bin/../lib/gcc/arm-none-eabi/4.9.3/../../../../arm-none-eabi/lib/armv7e-m/fpu\libm.a(lib_a-k_sin.o)
                              c:/gcc_arm/49/bin/../lib/gcc/arm-none-eabi/4.9.3/../../../../arm-none-eabi/lib/armv7e-m/fpu\libm.a(lib_a-s_cos.o) (__kernel_sin)
c:/gcc_arm/49/bin/../lib/gcc/arm-none-eabi/4.9.3/../../../../arm-none-eabi/lib/armv7e-m/fpu\libm.a(lib_a-s_atan.o)
                              c:/gcc_arm/49/bin/../lib/gcc/arm-none-eabi/4.9.3/../../../../arm-none-eabi/lib/armv7e-m/fpu\libm.a(lib_a-e_atan2.o) (atan)
c:/gcc_arm/49/bin/../lib/gcc/arm-none-eabi/4.9.3/../../../../arm-none-eabi/lib/armv7e-m/fpu\libm.a(lib_a-s_fabs.o)
                              c:/gcc_arm/49/bin/../lib/gcc/arm-none-eabi/4.9.3/../../../../arm-none-eabi/lib/armv7e-m/fpu\libm.a(lib_a-e_atan2.o) (fabs)
c:/gcc_arm/49/bin/../lib/gcc/arm-none-eabi/4.9.3/../../../../arm-none-eabi/lib/armv7e-m/fpu\libm.a(lib_a-s_finite.o)
                              c:/gcc_arm/49/bin/../lib/gcc/arm-none-eabi/4.9.3/../../../../arm-none-eabi/lib/armv7e-m/fpu\libm.a(lib_a-w_pow.o) (finite)
c:/gcc_arm/49/bin/../lib/gcc/arm-none-eabi/4.9.3/../../../../arm-none-eabi/lib/armv7e-m/fpu\libm.a(lib_a-s_floor.o)
                              c:/gcc_arm/49/bin/../lib/gcc/arm-none-eabi/4.9.3/../../../../arm-none-eabi/lib/armv7e-m/fpu\libm.a(lib_a-k_rem_pio2.o) (floor)
c:/gcc_arm/49/bin/../lib/gcc/arm-none-eabi/4.9.3/../../../../arm-none-eabi/lib/armv7e-m/fpu\libm.a(lib_a-s_fpclassify.o)
                              c:/gcc_arm/49/bin/../lib/gcc/arm-none-eabi/4.9.3/../../../../arm-none-eabi/lib/armv7e-m/fpu\libm.a(lib_a-w_pow.o) (__fpclassifyd)
c:/gcc_arm/49/bin/../lib/gcc/arm-none-eabi/4.9.3/../../../../arm-none-eabi/lib/armv7e-m/fpu\libm.a(lib_a-s_lib_ver.o)
                              c:/gcc_arm/49/bin/../lib/gcc/arm-none-eabi/4.9.3/../../../../arm-none-eabi/lib/armv7e-m/fpu\libm.a(lib_a-w_pow.o) (__fdlib_version)
c:/gcc_arm/49/bin/../lib/gcc/arm-none-eabi/4.9.3/../../../../arm-none-eabi/lib/armv7e-m/fpu\libm.a(lib_a-s_matherr.o)
                              c:/gcc_arm/49/bin/../lib/gcc/arm-none-eabi/4.9.3/../../../../arm-none-eabi/lib/armv7e-m/fpu\libm.a(lib_a-w_pow.o) (matherr)
c:/gcc_arm/49/bin/../lib/gcc/arm-none-eabi/4.9.3/../../../../arm-none-eabi/lib/armv7e-m/fpu\libm.a(lib_a-s_nan.o)
                              c:/gcc_arm/49/bin/../lib/gcc/arm-none-eabi/4.9.3/../../../../arm-none-eabi/lib/armv7e-m/fpu\libm.a(lib_a-wf_log10.o) (nan)
c:/gcc_arm/49/bin/../lib/gcc/arm-none-eabi/4.9.3/../../../../arm-none-eabi/lib/armv7e-m/fpu\libm.a(lib_a-s_rint.o)
                              c:/gcc_arm/49/bin/../lib/gcc/arm-none-eabi/4.9.3/../../../../arm-none-eabi/lib/armv7e-m/fpu\libm.a(lib_a-w_pow.o) (rint)
c:/gcc_arm/49/bin/../lib/gcc/arm-none-eabi/4.9.3/../../../../arm-none-eabi/lib/armv7e-m/fpu\libm.a(lib_a-s_scalbn.o)
                              c:/gcc_arm/49/bin/../lib/gcc/arm-none-eabi/4.9.3/../../../../arm-none-eabi/lib/armv7e-m/fpu\libm.a(lib_a-e_pow.o) (scalbn)
c:/gcc_arm/49/bin/../lib/gcc/arm-none-eabi/4.9.3/../../../../arm-none-eabi/lib/armv7e-m/fpu\libm.a(lib_a-sf_fpclassify.o)
                              c:/gcc_arm/49/bin/../lib/gcc/arm-none-eabi/4.9.3/../../../../arm-none-eabi/lib/armv7e-m/fpu\libm.a(lib_a-wf_log10.o) (__fpclassifyf)
c:/gcc_arm/49/bin/../lib/gcc/arm-none-eabi/4.9.3/../../../../arm-none-eabi/lib/armv7e-m/fpu\libm.a(lib_a-ef_log.o)
                              c:/gcc_arm/49/bin/../lib/gcc/arm-none-eabi/4.9.3/../../../../arm-none-eabi/lib/armv7e-m/fpu\libm.a(lib_a-ef_log10.o) (__ieee754_logf)
c:/gcc_arm/49/bin/../lib/gcc/arm-none-eabi/4.9.3/../../../../arm-none-eabi/lib/armv7e-m/fpu\libm.a(lib_a-s_copysign.o)
                              c:/gcc_arm/49/bin/../lib/gcc/arm-none-eabi/4.9.3/../../../../arm-none-eabi/lib/armv7e-m/fpu\libm.a(lib_a-s_scalbn.o) (copysign)
c:/gcc_arm/49/bin/../lib/gcc/arm-none-eabi/4.9.3/armv7e-m/fpu\libgcc.a(_arm_addsubdf3.o)
                              ..\obj\udp_echoclient.o (__aeabi_dsub)
c:/gcc_arm/49/bin/../lib/gcc/arm-none-eabi/4.9.3/armv7e-m/fpu\libgcc.a(_arm_muldivdf3.o)
                              ..\obj\udp_echoclient.o (__aeabi_dmul)
c:/gcc_arm/49/bin/../lib/gcc/arm-none-eabi/4.9.3/armv7e-m/fpu\libgcc.a(_arm_cmpdf2.o)
                              ..\obj\tm_stm32f4_timer_properties.o (__aeabi_dcmpeq)
c:/gcc_arm/49/bin/../lib/gcc/arm-none-eabi/4.9.3/armv7e-m/fpu\libgcc.a(_arm_fixdfsi.o)
                              c:/gcc_arm/49/bin/../lib/gcc/arm-none-eabi/4.9.3/../../../../arm-none-eabi/lib/armv7e-m/fpu\libm.a(lib_a-e_rem_pio2.o) (__aeabi_d2iz)
c:/gcc_arm/49/bin/../lib/gcc/arm-none-eabi/4.9.3/armv7e-m/fpu\libgcc.a(_arm_fixunsdfsi.o)
                              ..\obj\INA219.o (__aeabi_d2uiz)
c:/gcc_arm/49/bin/../lib/gcc/arm-none-eabi/4.9.3/armv7e-m/fpu\libgcc.a(_arm_truncdfsf2.o)
                              ..\obj\udp_echoclient.o (__aeabi_d2f)
c:/gcc_arm/49/bin/../lib/gcc/arm-none-eabi/4.9.3/../../../../arm-none-eabi/lib/armv7e-m/fpu\libg.a(lib_a-atoi.o)
                              ..\obj\utilities_new.o (atoi)
c:/gcc_arm/49/bin/../lib/gcc/arm-none-eabi/4.9.3/../../../../arm-none-eabi/lib/armv7e-m/fpu\libg.a(lib_a-errno.o)
                              c:/gcc_arm/49/bin/../lib/gcc/arm-none-eabi/4.9.3/../../../../arm-none-eabi/lib/armv7e-m/fpu\libm.a(lib_a-w_pow.o) (__errno)
c:/gcc_arm/49/bin/../lib/gcc/arm-none-eabi/4.9.3/../../../../arm-none-eabi/lib/armv7e-m/fpu\libg.a(lib_a-impure.o)
                              c:/gcc_arm/49/bin/../lib/gcc/arm-none-eabi/4.9.3/../../../../arm-none-eabi/lib/armv7e-m/fpu\libg.a(lib_a-errno.o) (_impure_ptr)
c:/gcc_arm/49/bin/../lib/gcc/arm-none-eabi/4.9.3/../../../../arm-none-eabi/lib/armv7e-m/fpu\libg.a(lib_a-malloc.o)
                              ..\obj\cmdline.o (malloc)
c:/gcc_arm/49/bin/../lib/gcc/arm-none-eabi/4.9.3/../../../../arm-none-eabi/lib/armv7e-m/fpu\libg.a(lib_a-mallocr.o)
                              c:/gcc_arm/49/bin/../lib/gcc/arm-none-eabi/4.9.3/../../../../arm-none-eabi/lib/armv7e-m/fpu\libg.a(lib_a-malloc.o) (_malloc_r)
c:/gcc_arm/49/bin/../lib/gcc/arm-none-eabi/4.9.3/../../../../arm-none-eabi/lib/armv7e-m/fpu\libg.a(lib_a-memcmp.o)
                              ..\obj\tm_stm32f4_rcc.o (memcmp)
c:/gcc_arm/49/bin/../lib/gcc/arm-none-eabi/4.9.3/../../../../arm-none-eabi/lib/armv7e-m/fpu\libg.a(lib_a-memcpy.o)
                              ..\obj\udp_echoclient.o (memcpy)
c:/gcc_arm/49/bin/../lib/gcc/arm-none-eabi/4.9.3/../../../../arm-none-eabi/lib/armv7e-m/fpu\libg.a(lib_a-memset.o)
                              ..\obj\mem.o (memset)
c:/gcc_arm/49/bin/../lib/gcc/arm-none-eabi/4.9.3/../../../../arm-none-eabi/lib/armv7e-m/fpu\libg.a(lib_a-mlock.o)
                              c:/gcc_arm/49/bin/../lib/gcc/arm-none-eabi/4.9.3/../../../../arm-none-eabi/lib/armv7e-m/fpu\libg.a(lib_a-mallocr.o) (__malloc_lock)
c:/gcc_arm/49/bin/../lib/gcc/arm-none-eabi/4.9.3/../../../../arm-none-eabi/lib/armv7e-m/fpu\libg.a(lib_a-printf.o)
                              ..\obj\udp_echoclient.o (printf)
c:/gcc_arm/49/bin/../lib/gcc/arm-none-eabi/4.9.3/../../../../arm-none-eabi/lib/armv7e-m/fpu\libg.a(lib_a-putchar.o)
                              ..\obj\gsm.o (putchar)
c:/gcc_arm/49/bin/../lib/gcc/arm-none-eabi/4.9.3/../../../../arm-none-eabi/lib/armv7e-m/fpu\libg.a(lib_a-puts.o)
                              ..\obj\gsm.o (puts)
c:/gcc_arm/49/bin/../lib/gcc/arm-none-eabi/4.9.3/../../../../arm-none-eabi/lib/armv7e-m/fpu\libg.a(lib_a-sbrkr.o)
                              c:/gcc_arm/49/bin/../lib/gcc/arm-none-eabi/4.9.3/../../../../arm-none-eabi/lib/armv7e-m/fpu\libg.a(lib_a-mallocr.o) (_sbrk_r)
c:/gcc_arm/49/bin/../lib/gcc/arm-none-eabi/4.9.3/../../../../arm-none-eabi/lib/armv7e-m/fpu\libg.a(lib_a-sprintf.o)
                              ..\obj\udp_echoclient.o (sprintf)
c:/gcc_arm/49/bin/../lib/gcc/arm-none-eabi/4.9.3/../../../../arm-none-eabi/lib/armv7e-m/fpu\libg.a(lib_a-strcat.o)
                              ..\obj\gsm.o (strcat)
c:/gcc_arm/49/bin/../lib/gcc/arm-none-eabi/4.9.3/../../../../arm-none-eabi/lib/armv7e-m/fpu\libg.a(lib_a-strcpy.o)
                              ..\obj\cmdline.o (strcpy)
c:/gcc_arm/49/bin/../lib/gcc/arm-none-eabi/4.9.3/../../../../arm-none-eabi/lib/armv7e-m/fpu\libg.a(lib_a-strlen.o)
                              ..\obj\udp_echoclient.o (strlen)
c:/gcc_arm/49/bin/../lib/gcc/arm-none-eabi/4.9.3/../../../../arm-none-eabi/lib/armv7e-m/fpu\libg.a(lib_a-strncmp.o)
                              ..\obj\cmdline.o (strncmp)
c:/gcc_arm/49/bin/../lib/gcc/arm-none-eabi/4.9.3/../../../../arm-none-eabi/lib/armv7e-m/fpu\libg.a(lib_a-strncpy.o)
                              ..\obj\cmdline_functions.o (strncpy)
c:/gcc_arm/49/bin/../lib/gcc/arm-none-eabi/4.9.3/../../../../arm-none-eabi/lib/armv7e-m/fpu\libg.a(lib_a-strstr.o)
                              ..\obj\gsm.o (strstr)
c:/gcc_arm/49/bin/../lib/gcc/arm-none-eabi/4.9.3/../../../../arm-none-eabi/lib/armv7e-m/fpu\libg.a(lib_a-strtok.o)
                              ..\obj\utilities_new.o (strtok)
c:/gcc_arm/49/bin/../lib/gcc/arm-none-eabi/4.9.3/../../../../arm-none-eabi/lib/armv7e-m/fpu\libg.a(lib_a-strtok_r.o)
                              c:/gcc_arm/49/bin/../lib/gcc/arm-none-eabi/4.9.3/../../../../arm-none-eabi/lib/armv7e-m/fpu\libg.a(lib_a-strtok.o) (__strtok_r)
c:/gcc_arm/49/bin/../lib/gcc/arm-none-eabi/4.9.3/../../../../arm-none-eabi/lib/armv7e-m/fpu\libg.a(lib_a-strtol.o)
                              c:/gcc_arm/49/bin/../lib/gcc/arm-none-eabi/4.9.3/../../../../arm-none-eabi/lib/armv7e-m/fpu\libg.a(lib_a-atoi.o) (_strtol_r)
c:/gcc_arm/49/bin/../lib/gcc/arm-none-eabi/4.9.3/../../../../arm-none-eabi/lib/armv7e-m/fpu\libg.a(lib_a-svfprintf.o)
                              c:/gcc_arm/49/bin/../lib/gcc/arm-none-eabi/4.9.3/../../../../arm-none-eabi/lib/armv7e-m/fpu\libg.a(lib_a-sprintf.o) (_svfprintf_r)
c:/gcc_arm/49/bin/../lib/gcc/arm-none-eabi/4.9.3/../../../../arm-none-eabi/lib/armv7e-m/fpu\libg.a(lib_a-vfprintf.o)
                              c:/gcc_arm/49/bin/../lib/gcc/arm-none-eabi/4.9.3/../../../../arm-none-eabi/lib/armv7e-m/fpu\libg.a(lib_a-printf.o) (_vfprintf_r)
c:/gcc_arm/49/bin/../lib/gcc/arm-none-eabi/4.9.3/../../../../arm-none-eabi/lib/armv7e-m/fpu\libg.a(lib_a-wsetup.o)
                              c:/gcc_arm/49/bin/../lib/gcc/arm-none-eabi/4.9.3/../../../../arm-none-eabi/lib/armv7e-m/fpu\libg.a(lib_a-vfprintf.o) (__swsetup_r)
c:/gcc_arm/49/bin/../lib/gcc/arm-none-eabi/4.9.3/../../../../arm-none-eabi/lib/armv7e-m/fpu\libg.a(lib_a-ctype_.o)
                              c:/gcc_arm/49/bin/../lib/gcc/arm-none-eabi/4.9.3/../../../../arm-none-eabi/lib/armv7e-m/fpu\libg.a(lib_a-strtol.o) (__ctype_ptr__)
c:/gcc_arm/49/bin/../lib/gcc/arm-none-eabi/4.9.3/../../../../arm-none-eabi/lib/armv7e-m/fpu\libg.a(lib_a-dtoa.o)
                              c:/gcc_arm/49/bin/../lib/gcc/arm-none-eabi/4.9.3/../../../../arm-none-eabi/lib/armv7e-m/fpu\libg.a(lib_a-svfprintf.o) (_dtoa_r)
c:/gcc_arm/49/bin/../lib/gcc/arm-none-eabi/4.9.3/../../../../arm-none-eabi/lib/armv7e-m/fpu\libg.a(lib_a-fflush.o)
                              c:/gcc_arm/49/bin/../lib/gcc/arm-none-eabi/4.9.3/../../../../arm-none-eabi/lib/armv7e-m/fpu\libg.a(lib_a-vfprintf.o) (_fflush_r)
c:/gcc_arm/49/bin/../lib/gcc/arm-none-eabi/4.9.3/../../../../arm-none-eabi/lib/armv7e-m/fpu\libg.a(lib_a-findfp.o)
                              c:/gcc_arm/49/bin/../lib/gcc/arm-none-eabi/4.9.3/../../../../arm-none-eabi/lib/armv7e-m/fpu\libg.a(lib_a-puts.o) (__sinit)
c:/gcc_arm/49/bin/../lib/gcc/arm-none-eabi/4.9.3/../../../../arm-none-eabi/lib/armv7e-m/fpu\libg.a(lib_a-freer.o)
                              c:/gcc_arm/49/bin/../lib/gcc/arm-none-eabi/4.9.3/../../../../arm-none-eabi/lib/armv7e-m/fpu\libg.a(lib_a-malloc.o) (_free_r)
c:/gcc_arm/49/bin/../lib/gcc/arm-none-eabi/4.9.3/../../../../arm-none-eabi/lib/armv7e-m/fpu\libg.a(lib_a-fvwrite.o)
                              c:/gcc_arm/49/bin/../lib/gcc/arm-none-eabi/4.9.3/../../../../arm-none-eabi/lib/armv7e-m/fpu\libg.a(lib_a-puts.o) (__sfvwrite_r)
c:/gcc_arm/49/bin/../lib/gcc/arm-none-eabi/4.9.3/../../../../arm-none-eabi/lib/armv7e-m/fpu\libg.a(lib_a-fwalk.o)
                              c:/gcc_arm/49/bin/../lib/gcc/arm-none-eabi/4.9.3/../../../../arm-none-eabi/lib/armv7e-m/fpu\libg.a(lib_a-findfp.o) (_fwalk)
c:/gcc_arm/49/bin/../lib/gcc/arm-none-eabi/4.9.3/../../../../arm-none-eabi/lib/armv7e-m/fpu\libg.a(lib_a-locale.o)
                              c:/gcc_arm/49/bin/../lib/gcc/arm-none-eabi/4.9.3/../../../../arm-none-eabi/lib/armv7e-m/fpu\libg.a(lib_a-svfprintf.o) (_localeconv_r)
c:/gcc_arm/49/bin/../lib/gcc/arm-none-eabi/4.9.3/../../../../arm-none-eabi/lib/armv7e-m/fpu\libg.a(lib_a-makebuf.o)
                              c:/gcc_arm/49/bin/../lib/gcc/arm-none-eabi/4.9.3/../../../../arm-none-eabi/lib/armv7e-m/fpu\libg.a(lib_a-wsetup.o) (__smakebuf_r)
c:/gcc_arm/49/bin/../lib/gcc/arm-none-eabi/4.9.3/../../../../arm-none-eabi/lib/armv7e-m/fpu\libg.a(lib_a-memchr.o)
                              c:/gcc_arm/49/bin/../lib/gcc/arm-none-eabi/4.9.3/../../../../arm-none-eabi/lib/armv7e-m/fpu\libg.a(lib_a-strstr.o) (memchr)
c:/gcc_arm/49/bin/../lib/gcc/arm-none-eabi/4.9.3/../../../../arm-none-eabi/lib/armv7e-m/fpu\libg.a(lib_a-memmove.o)
                              c:/gcc_arm/49/bin/../lib/gcc/arm-none-eabi/4.9.3/../../../../arm-none-eabi/lib/armv7e-m/fpu\libg.a(lib_a-fvwrite.o) (memmove)
c:/gcc_arm/49/bin/../lib/gcc/arm-none-eabi/4.9.3/../../../../arm-none-eabi/lib/armv7e-m/fpu\libg.a(lib_a-mprec.o)
                              c:/gcc_arm/49/bin/../lib/gcc/arm-none-eabi/4.9.3/../../../../arm-none-eabi/lib/armv7e-m/fpu\libg.a(lib_a-dtoa.o) (_Balloc)
c:/gcc_arm/49/bin/../lib/gcc/arm-none-eabi/4.9.3/../../../../arm-none-eabi/lib/armv7e-m/fpu\libg.a(lib_a-putc.o)
                              c:/gcc_arm/49/bin/../lib/gcc/arm-none-eabi/4.9.3/../../../../arm-none-eabi/lib/armv7e-m/fpu\libg.a(lib_a-putchar.o) (_putc_r)
c:/gcc_arm/49/bin/../lib/gcc/arm-none-eabi/4.9.3/../../../../arm-none-eabi/lib/armv7e-m/fpu\libg.a(lib_a-reallocr.o)
                              c:/gcc_arm/49/bin/../lib/gcc/arm-none-eabi/4.9.3/../../../../arm-none-eabi/lib/armv7e-m/fpu\libg.a(lib_a-fvwrite.o) (_realloc_r)
c:/gcc_arm/49/bin/../lib/gcc/arm-none-eabi/4.9.3/../../../../arm-none-eabi/lib/armv7e-m/fpu\libg.a(lib_a-reent.o)
                              c:/gcc_arm/49/bin/../lib/gcc/arm-none-eabi/4.9.3/../../../../arm-none-eabi/lib/armv7e-m/fpu\libg.a(lib_a-sbrkr.o) (errno)
c:/gcc_arm/49/bin/../lib/gcc/arm-none-eabi/4.9.3/../../../../arm-none-eabi/lib/armv7e-m/fpu\libg.a(lib_a-stdio.o)
                              c:/gcc_arm/49/bin/../lib/gcc/arm-none-eabi/4.9.3/../../../../arm-none-eabi/lib/armv7e-m/fpu\libg.a(lib_a-findfp.o) (__sread)
c:/gcc_arm/49/bin/../lib/gcc/arm-none-eabi/4.9.3/../../../../arm-none-eabi/lib/armv7e-m/fpu\libg.a(lib_a-strchr.o)
                              c:/gcc_arm/49/bin/../lib/gcc/arm-none-eabi/4.9.3/../../../../arm-none-eabi/lib/armv7e-m/fpu\libg.a(lib_a-strstr.o) (strchr)
c:/gcc_arm/49/bin/../lib/gcc/arm-none-eabi/4.9.3/../../../../arm-none-eabi/lib/armv7e-m/fpu\libg.a(lib_a-strcmp.o)
                              c:/gcc_arm/49/bin/../lib/gcc/arm-none-eabi/4.9.3/../../../../arm-none-eabi/lib/armv7e-m/fpu\libg.a(lib_a-locale.o) (strcmp)
c:/gcc_arm/49/bin/../lib/gcc/arm-none-eabi/4.9.3/../../../../arm-none-eabi/lib/armv7e-m/fpu\libg.a(lib_a-svfiprintf.o)
                              c:/gcc_arm/49/bin/../lib/gcc/arm-none-eabi/4.9.3/../../../../arm-none-eabi/lib/armv7e-m/fpu\libg.a(lib_a-svfprintf.o) (__ssprint_r)
c:/gcc_arm/49/bin/../lib/gcc/arm-none-eabi/4.9.3/../../../../arm-none-eabi/lib/armv7e-m/fpu\libg.a(lib_a-vfiprintf.o)
                              c:/gcc_arm/49/bin/../lib/gcc/arm-none-eabi/4.9.3/../../../../arm-none-eabi/lib/armv7e-m/fpu\libg.a(lib_a-vfprintf.o) (__sprint_r)
c:/gcc_arm/49/bin/../lib/gcc/arm-none-eabi/4.9.3/../../../../arm-none-eabi/lib/armv7e-m/fpu\libg.a(lib_a-wbuf.o)
                              c:/gcc_arm/49/bin/../lib/gcc/arm-none-eabi/4.9.3/../../../../arm-none-eabi/lib/armv7e-m/fpu\libg.a(lib_a-putc.o) (__swbuf_r)
c:/gcc_arm/49/bin/../lib/gcc/arm-none-eabi/4.9.3/../../../../arm-none-eabi/lib/armv7e-m/fpu\libg.a(lib_a-writer.o)
                              c:/gcc_arm/49/bin/../lib/gcc/arm-none-eabi/4.9.3/../../../../arm-none-eabi/lib/armv7e-m/fpu\libg.a(lib_a-stdio.o) (_write_r)
c:/gcc_arm/49/bin/../lib/gcc/arm-none-eabi/4.9.3/../../../../arm-none-eabi/lib/armv7e-m/fpu\libg.a(lib_a-callocr.o)
                              c:/gcc_arm/49/bin/../lib/gcc/arm-none-eabi/4.9.3/../../../../arm-none-eabi/lib/armv7e-m/fpu\libg.a(lib_a-mprec.o) (_calloc_r)
c:/gcc_arm/49/bin/../lib/gcc/arm-none-eabi/4.9.3/../../../../arm-none-eabi/lib/armv7e-m/fpu\libg.a(lib_a-closer.o)
                              c:/gcc_arm/49/bin/../lib/gcc/arm-none-eabi/4.9.3/../../../../arm-none-eabi/lib/armv7e-m/fpu\libg.a(lib_a-stdio.o) (_close_r)
c:/gcc_arm/49/bin/../lib/gcc/arm-none-eabi/4.9.3/../../../../arm-none-eabi/lib/armv7e-m/fpu\libg.a(lib_a-fclose.o)
                              c:/gcc_arm/49/bin/../lib/gcc/arm-none-eabi/4.9.3/../../../../arm-none-eabi/lib/armv7e-m/fpu\libg.a(lib_a-findfp.o) (_fclose_r)
c:/gcc_arm/49/bin/../lib/gcc/arm-none-eabi/4.9.3/../../../../arm-none-eabi/lib/armv7e-m/fpu\libg.a(lib_a-fputwc.o)
                              c:/gcc_arm/49/bin/../lib/gcc/arm-none-eabi/4.9.3/../../../../arm-none-eabi/lib/armv7e-m/fpu\libg.a(lib_a-vfiprintf.o) (_fputwc_r)
c:/gcc_arm/49/bin/../lib/gcc/arm-none-eabi/4.9.3/../../../../arm-none-eabi/lib/armv7e-m/fpu\libg.a(lib_a-fstatr.o)
                              c:/gcc_arm/49/bin/../lib/gcc/arm-none-eabi/4.9.3/../../../../arm-none-eabi/lib/armv7e-m/fpu\libg.a(lib_a-makebuf.o) (_fstat_r)
c:/gcc_arm/49/bin/../lib/gcc/arm-none-eabi/4.9.3/../../../../arm-none-eabi/lib/armv7e-m/fpu\libg.a(lib_a-isattyr.o)
                              c:/gcc_arm/49/bin/../lib/gcc/arm-none-eabi/4.9.3/../../../../arm-none-eabi/lib/armv7e-m/fpu\libg.a(lib_a-makebuf.o) (_isatty_r)
c:/gcc_arm/49/bin/../lib/gcc/arm-none-eabi/4.9.3/../../../../arm-none-eabi/lib/armv7e-m/fpu\libg.a(lib_a-lseekr.o)
                              c:/gcc_arm/49/bin/../lib/gcc/arm-none-eabi/4.9.3/../../../../arm-none-eabi/lib/armv7e-m/fpu\libg.a(lib_a-stdio.o) (_lseek_r)
c:/gcc_arm/49/bin/../lib/gcc/arm-none-eabi/4.9.3/../../../../arm-none-eabi/lib/armv7e-m/fpu\libg.a(lib_a-readr.o)
                              c:/gcc_arm/49/bin/../lib/gcc/arm-none-eabi/4.9.3/../../../../arm-none-eabi/lib/armv7e-m/fpu\libg.a(lib_a-stdio.o) (_read_r)
c:/gcc_arm/49/bin/../lib/gcc/arm-none-eabi/4.9.3/../../../../arm-none-eabi/lib/armv7e-m/fpu\libg.a(lib_a-wcrtomb.o)
                              c:/gcc_arm/49/bin/../lib/gcc/arm-none-eabi/4.9.3/../../../../arm-none-eabi/lib/armv7e-m/fpu\libg.a(lib_a-fputwc.o) (_wcrtomb_r)
c:/gcc_arm/49/bin/../lib/gcc/arm-none-eabi/4.9.3/../../../../arm-none-eabi/lib/armv7e-m/fpu\libg.a(lib_a-wctomb_r.o)
                              c:/gcc_arm/49/bin/../lib/gcc/arm-none-eabi/4.9.3/../../../../arm-none-eabi/lib/armv7e-m/fpu\libg.a(lib_a-wcrtomb.o) (__wctomb)
c:/gcc_arm/49/bin/../lib/gcc/arm-none-eabi/4.9.3/armv7e-m/fpu\libgcc.a(_aeabi_uldivmod.o)
                              c:/gcc_arm/49/bin/../lib/gcc/arm-none-eabi/4.9.3/../../../../arm-none-eabi/lib/armv7e-m/fpu\libg.a(lib_a-svfprintf.o) (__aeabi_uldivmod)
c:/gcc_arm/49/bin/../lib/gcc/arm-none-eabi/4.9.3/armv7e-m/fpu\libgcc.a(bpabi.o)
                              c:/gcc_arm/49/bin/../lib/gcc/arm-none-eabi/4.9.3/armv7e-m/fpu\libgcc.a(_aeabi_uldivmod.o) (__gnu_uldivmod_helper)
c:/gcc_arm/49/bin/../lib/gcc/arm-none-eabi/4.9.3/armv7e-m/fpu\libgcc.a(_dvmd_tls.o)
                              c:/gcc_arm/49/bin/../lib/gcc/arm-none-eabi/4.9.3/armv7e-m/fpu\libgcc.a(_aeabi_uldivmod.o) (__aeabi_ldiv0)
c:/gcc_arm/49/bin/../lib/gcc/arm-none-eabi/4.9.3/armv7e-m/fpu\libgcc.a(_divdi3.o)
                              c:/gcc_arm/49/bin/../lib/gcc/arm-none-eabi/4.9.3/armv7e-m/fpu\libgcc.a(bpabi.o) (__divdi3)
c:/gcc_arm/49/bin/../lib/gcc/arm-none-eabi/4.9.3/armv7e-m/fpu\libgcc.a(_udivdi3.o)
                              c:/gcc_arm/49/bin/../lib/gcc/arm-none-eabi/4.9.3/armv7e-m/fpu\libgcc.a(bpabi.o) (__udivdi3)

Allocating common symbols
Common symbol       size              file

netif               0x38              ..\obj\netconf.o
gsm_state           0x1               ..\obj\udp_echoclient.o
netif_list          0x4               ..\obj\netif.o
onOffPin            0x1               ..\obj\udp_echoclient.o
conf                0x3c              ..\obj\main.o
CmdlineBufferLength
                    0x1               ..\obj\cmdline.o
RX_Frame_Descriptor
                    0xc               ..\obj\stm32f4x7_eth.o
tcp_active_pcbs     0x4               ..\obj\tcp.o
udp_pcbs            0x4               ..\obj\udp.o
errno               0x4               c:/gcc_arm/49/bin/../lib/gcc/arm-none-eabi/4.9.3/../../../../arm-none-eabi/lib/armv7e-m/fpu\libg.a(lib_a-reent.o)
RTC_TimeStruct      0x4               ..\obj\tm_stm32f4_rtc.o
current_netif       0x4               ..\obj\ip.o
helper              0x64              ..\obj\vt100.o
CmdlineExecFunction
                    0x4               ..\obj\cmdline.o
tcp_ticks           0x4               ..\obj\tcp.o
tcp_listen_pcbs     0x4               ..\obj\tcp.o
DMARxDescToGet      0x4               ..\obj\stm32f4x7_eth.o
CmdlineNumCommands  0x1               ..\obj\cmdline.o
vShuntMax           0x4               ..\obj\cmdline_functions.o
DMATxDescToSet      0x4               ..\obj\stm32f4x7_eth.o
TM_UART5_Buffer     0x80              ..\obj\tm_stm32f4_usart.o
tcp_tmp_pcb         0x4               ..\obj\tcp.o
CmdlineInputVT100State
                    0x1               ..\obj\cmdline.o
RTC_InitStruct      0xc               ..\obj\tm_stm32f4_rtc.o
rShunt              0x4               ..\obj\cmdline_functions.o
tcp_input_pcb       0x4               ..\obj\tcp_in.o
CmdlineBufferEditPos
                    0x1               ..\obj\cmdline.o
vBusMax             0x4               ..\obj\cmdline_functions.o
DMATxDscrTab        0xa0              ..\obj\stm32f4x7_eth.o
current_header      0x4               ..\obj\ip.o
Rx_Buff             0x1dc4            ..\obj\stm32f4x7_eth.o
buffer              0x80              ..\obj\cmdline_functions.o
tcp_bound_pcbs      0x4               ..\obj\tcp.o
currentLSB          0x4               ..\obj\cmdline_functions.o
bt_cnt              0x1               ..\obj\main.o
TM_USART6_Buffer    0x80              ..\obj\tm_stm32f4_usart.o
Frame_Rx_index      0x4               ..\obj\stm32f4x7_eth.o
data                0x40              ..\obj\udp_echoclient.o
TM_USART3_Buffer    0x80              ..\obj\tm_stm32f4_usart.o
DMA_RX_FRAME_infos  0x4               ..\obj\stm32f4x7_eth.o
RTC_DateStruct      0x4               ..\obj\tm_stm32f4_rtc.o
SysBootLoader       0x4               ..\obj\cmdline_functions.o
TM_USART2_Buffer    0x80              ..\obj\tm_stm32f4_usart.o
DMARxDscrTab        0xa0              ..\obj\stm32f4x7_eth.o
NVIC_InitStruct     0x4               ..\obj\tm_stm32f4_rtc.o
CmdlineBuffer       0x40              ..\obj\cmdline.o
TM_USART1_Buffer    0x80              ..\obj\tm_stm32f4_usart.o
TM_UART4_Buffer     0x80              ..\obj\tm_stm32f4_usart.o
tcp_tw_pcbs         0x4               ..\obj\tcp.o
CmdlineHistory      0x40              ..\obj\cmdline.o
mult                0x4               ..\obj\tm_stm32f4_delay.o
netif_default       0x4               ..\obj\netif.o
EXTI_InitStruct     0x8               ..\obj\tm_stm32f4_rtc.o
pin                 0x5               ..\obj\udp_echoclient.o
Tx_Buff             0x1dc4            ..\obj\stm32f4x7_eth.o
powerLSB            0x4               ..\obj\cmdline_functions.o

Discarded input sections

 .text          0x00000000        0x0 ..\obj\stm32f4xx_syscfg.o
 .data          0x00000000        0x0 ..\obj\stm32f4xx_syscfg.o
 .bss           0x00000000        0x0 ..\obj\stm32f4xx_syscfg.o
 .text.SYSCFG_DeInit
                0x00000000       0x1c ..\obj\stm32f4xx_syscfg.o
 .text.SYSCFG_MemoryRemapConfig
                0x00000000       0x20 ..\obj\stm32f4xx_syscfg.o
 .text.SYSCFG_MemorySwappingBank
                0x00000000       0x20 ..\obj\stm32f4xx_syscfg.o
 .text.SYSCFG_EXTILineConfig
                0x00000000       0x84 ..\obj\stm32f4xx_syscfg.o
 .text.SYSCFG_CompensationCellCmd
                0x00000000       0x20 ..\obj\stm32f4xx_syscfg.o
 .text.SYSCFG_GetCompensationCellStatus
                0x00000000       0x34 ..\obj\stm32f4xx_syscfg.o
 .text          0x00000000        0x0 ..\obj\mem.o
 .data          0x00000000        0x0 ..\obj\mem.o
 .text.mem_calloc
                0x00000000       0x44 ..\obj\mem.o
 .text          0x00000000        0x0 ..\obj\udp_echoclient.o
 .data          0x00000000        0x0 ..\obj\udp_echoclient.o
 .bss           0x00000000        0x0 ..\obj\udp_echoclient.o
 .text.udp_echoserver_init
                0x00000000       0x58 ..\obj\udp_echoclient.o
 .text          0x00000000        0x0 ..\obj\cmdline.o
 .text.cmdlineHelp
                0x00000000       0x7c ..\obj\cmdline.o
 .text.cmdlineGetArgHex
                0x00000000       0x2c ..\obj\cmdline.o
 .text          0x00000000        0x0 ..\obj\tcp.o
 .bss           0x00000000        0x1 ..\obj\tcp.o
 .text.tcp_tmr  0x00000000       0x2c ..\obj\tcp.o
 .text.tcp_bind
                0x00000000      0x17c ..\obj\tcp.o
 .text.tcp_accept_null
                0x00000000       0x20 ..\obj\tcp.o
 .text.tcp_listen_with_backlog
                0x00000000      0x10c ..\obj\tcp.o
 .text.tcp_new_port
                0x00000000       0xac ..\obj\tcp.o
 .text.tcp_connect
                0x00000000      0x174 ..\obj\tcp.o
 .text.tcp_slowtmr
                0x00000000      0x3cc ..\obj\tcp.o
 .text.tcp_fasttmr
                0x00000000       0xb0 ..\obj\tcp.o
 .text.tcp_setprio
                0x00000000       0x1c ..\obj\tcp.o
 .text.tcp_new  0x00000000       0x10 ..\obj\tcp.o
 .text.tcp_arg  0x00000000       0x1c ..\obj\tcp.o
 .text.tcp_recv
                0x00000000       0x1c ..\obj\tcp.o
 .text.tcp_sent
                0x00000000       0x1c ..\obj\tcp.o
 .text.tcp_err  0x00000000       0x1c ..\obj\tcp.o
 .text.tcp_accept
                0x00000000       0x1c ..\obj\tcp.o
 .text.tcp_poll
                0x00000000       0x28 ..\obj\tcp.o
 .text.tcp_debug_state_str
                0x00000000       0x24 ..\obj\tcp.o
 .text          0x00000000        0x0 ..\obj\gsm.o
 .data          0x00000000        0x0 ..\obj\gsm.o
 .bss           0x00000000        0x0 ..\obj\gsm.o
 .text.GSM_skip
                0x00000000       0x38 ..\obj\gsm.o
 .text.GSM_readToken
                0x00000000       0x50 ..\obj\gsm.o
 .text.GSM_isOn
                0x00000000       0x24 ..\obj\gsm.o
 .text.GSM_isInitialized
                0x00000000       0x24 ..\obj\gsm.o
 .text.GSM_checkNetwork
                0x00000000       0x50 ..\obj\gsm.o
 .text.GSM_version
                0x00000000       0x68 ..\obj\gsm.o
 .text.GSM_Send
                0x00000000       0x34 ..\obj\gsm.o
 .text.GSM_send
                0x00000000       0x1c ..\obj\gsm.o
 .text.GSM_receive
                0x00000000       0x1c ..\obj\gsm.o
 .text.GSM_switchOn
                0x00000000       0x44 ..\obj\gsm.o
 .text.GSM_switchOff
                0x00000000       0x40 ..\obj\gsm.o
 .text.GSM_switchModem
                0x00000000        0xc ..\obj\gsm.o
 .text          0x00000000        0x0 ..\obj\tm_stm32f4_exti.o
 .data          0x00000000        0x0 ..\obj\tm_stm32f4_exti.o
 .bss           0x00000000        0x0 ..\obj\tm_stm32f4_exti.o
 .text.TM_EXTI_Attach
                0x00000000      0x288 ..\obj\tm_stm32f4_exti.o
 .text.TM_EXTI_Detach
                0x00000000       0x54 ..\obj\tm_stm32f4_exti.o
 .text.TM_EXTI_DeInit
                0x00000000       0x4c ..\obj\tm_stm32f4_exti.o
 .text          0x00000000        0x0 ..\obj\INA219.o
 .data          0x00000000        0x0 ..\obj\INA219.o
 .bss           0x00000000        0x0 ..\obj\INA219.o
 .text.INA219_getMaxPossibleCurrent
                0x00000000       0x28 ..\obj\INA219.o
 .text.INA219_getMaxCurrent
                0x00000000       0x50 ..\obj\INA219.o
 .text.INA219_getMaxShuntVoltage
                0x00000000       0x50 ..\obj\INA219.o
 .text.INA219_getMaxPower
                0x00000000       0x20 ..\obj\INA219.o
 .text.INA219_readShuntVoltage
                0x00000000       0x34 ..\obj\INA219.o
 .text.INA219_getRange
                0x00000000       0x2c ..\obj\INA219.o
 .text.INA219_getGain
                0x00000000       0x2c ..\obj\INA219.o
 .text.INA219_getBusRes
                0x00000000       0x2c ..\obj\INA219.o
 .text.INA219_getShuntRes
                0x00000000       0x2c ..\obj\INA219.o
 .text.INA219_getMode
                0x00000000       0x24 ..\obj\INA219.o
 .rodata        0x00000000      0x329 ..\obj\INA219.o
 .text.INA219_checkConfig
                0x00000000      0x338 ..\obj\INA219.o
 .text          0x00000000        0x0 ..\obj\err.o
 .data          0x00000000        0x0 ..\obj\err.o
 .bss           0x00000000        0x0 ..\obj\err.o
 .debug_info    0x00000000       0x72 ..\obj\err.o
 .debug_abbrev  0x00000000       0x26 ..\obj\err.o
 .debug_aranges
                0x00000000       0x18 ..\obj\err.o
 .debug_line    0x00000000       0x1d ..\obj\err.o
 .debug_str     0x00000000      0x1bc ..\obj\err.o
 .comment       0x00000000       0x71 ..\obj\err.o
 .ARM.attributes
                0x00000000       0x39 ..\obj\err.o
 .text          0x00000000        0x0 ..\obj\tm_stm32f4_rcc.o
 .data          0x00000000        0x0 ..\obj\tm_stm32f4_rcc.o
 .bss           0x00000000        0x0 ..\obj\tm_stm32f4_rcc.o
 .text.TM_RCC_SetPLL
                0x00000000      0x15c ..\obj\tm_stm32f4_rcc.o
 .text.TM_RCC_GetPLL
                0x00000000       0x70 ..\obj\tm_stm32f4_rcc.o
 .text.TM_RCC_IsPLLReady
                0x00000000       0x18 ..\obj\tm_stm32f4_rcc.o
 .debug_info    0x00000000      0x392 ..\obj\tm_stm32f4_rcc.o
 .debug_abbrev  0x00000000      0x137 ..\obj\tm_stm32f4_rcc.o
 .debug_aranges
                0x00000000       0x30 ..\obj\tm_stm32f4_rcc.o
 .debug_ranges  0x00000000       0x20 ..\obj\tm_stm32f4_rcc.o
 .debug_line    0x00000000      0x1d3 ..\obj\tm_stm32f4_rcc.o
 .debug_str     0x00000000      0x369 ..\obj\tm_stm32f4_rcc.o
 .comment       0x00000000       0x71 ..\obj\tm_stm32f4_rcc.o
 .debug_frame   0x00000000       0x7c ..\obj\tm_stm32f4_rcc.o
 .ARM.attributes
                0x00000000       0x39 ..\obj\tm_stm32f4_rcc.o
 .text          0x00000000        0x0 ..\obj\tm_stm32f4_bkpsram.o
 .data          0x00000000        0x0 ..\obj\tm_stm32f4_bkpsram.o
 .bss           0x00000000        0x0 ..\obj\tm_stm32f4_bkpsram.o
 .text          0x00000000        0x0 ..\obj\tcp_in.o
 .data          0x00000000        0x0 ..\obj\tcp_in.o
 .text          0x00000000        0x0 ..\obj\stm32f4xx_usart.o
 .data          0x00000000        0x0 ..\obj\stm32f4xx_usart.o
 .bss           0x00000000        0x0 ..\obj\stm32f4xx_usart.o
 .text.USART_StructInit
                0x00000000       0x38 ..\obj\stm32f4xx_usart.o
 .text.USART_ClockInit
                0x00000000       0x54 ..\obj\stm32f4xx_usart.o
 .text.USART_ClockStructInit
                0x00000000       0x2c ..\obj\stm32f4xx_usart.o
 .text.USART_Cmd
                0x00000000       0x40 ..\obj\stm32f4xx_usart.o
 .text.USART_SetPrescaler
                0x00000000       0x38 ..\obj\stm32f4xx_usart.o
 .text.USART_OverSampling8Cmd
                0x00000000       0x44 ..\obj\stm32f4xx_usart.o
 .text.USART_OneBitMethodCmd
                0x00000000       0x40 ..\obj\stm32f4xx_usart.o
 .text.USART_ReceiveData
                0x00000000       0x20 ..\obj\stm32f4xx_usart.o
 .text.USART_SetAddress
                0x00000000       0x38 ..\obj\stm32f4xx_usart.o
 .text.USART_ReceiverWakeUpCmd
                0x00000000       0x40 ..\obj\stm32f4xx_usart.o
 .text.USART_WakeUpConfig
                0x00000000       0x38 ..\obj\stm32f4xx_usart.o
 .text.USART_LINBreakDetectLengthConfig
                0x00000000       0x38 ..\obj\stm32f4xx_usart.o
 .text.USART_LINCmd
                0x00000000       0x40 ..\obj\stm32f4xx_usart.o
 .text.USART_SendBreak
                0x00000000       0x24 ..\obj\stm32f4xx_usart.o
 .text.USART_HalfDuplexCmd
                0x00000000       0x40 ..\obj\stm32f4xx_usart.o
 .text.USART_SetGuardTime
                0x00000000       0x3c ..\obj\stm32f4xx_usart.o
 .text.USART_SmartCardCmd
                0x00000000       0x40 ..\obj\stm32f4xx_usart.o
 .text.USART_SmartCardNACKCmd
                0x00000000       0x40 ..\obj\stm32f4xx_usart.o
 .text.USART_IrDAConfig
                0x00000000       0x38 ..\obj\stm32f4xx_usart.o
 .text.USART_IrDACmd
                0x00000000       0x40 ..\obj\stm32f4xx_usart.o
 .text.USART_DMACmd
                0x00000000       0x48 ..\obj\stm32f4xx_usart.o
 .text.USART_ITConfig
                0x00000000       0x90 ..\obj\stm32f4xx_usart.o
 .text.USART_ClearFlag
                0x00000000       0x20 ..\obj\stm32f4xx_usart.o
 .text.USART_GetITStatus
                0x00000000       0xb8 ..\obj\stm32f4xx_usart.o
 .text.USART_ClearITPendingBit
                0x00000000       0x38 ..\obj\stm32f4xx_usart.o
 .text          0x00000000        0x0 ..\obj\stm32f4xx_pwr.o
 .data          0x00000000        0x0 ..\obj\stm32f4xx_pwr.o
 .bss           0x00000000        0x0 ..\obj\stm32f4xx_pwr.o
 .text.PWR_DeInit
                0x00000000       0x1c ..\obj\stm32f4xx_pwr.o
 .text.PWR_PVDLevelConfig
                0x00000000       0x38 ..\obj\stm32f4xx_pwr.o
 .text.PWR_PVDCmd
                0x00000000       0x20 ..\obj\stm32f4xx_pwr.o
 .text.PWR_WakeUpPinCmd
                0x00000000       0x20 ..\obj\stm32f4xx_pwr.o
 .text.PWR_MainRegulatorModeConfig
                0x00000000       0x38 ..\obj\stm32f4xx_pwr.o
 .text.PWR_OverDriveCmd
                0x00000000       0x20 ..\obj\stm32f4xx_pwr.o
 .text.PWR_OverDriveSWCmd
                0x00000000       0x20 ..\obj\stm32f4xx_pwr.o
 .text.PWR_UnderDriveCmd
                0x00000000       0x38 ..\obj\stm32f4xx_pwr.o
 .text.PWR_MainRegulatorLowVoltageCmd
                0x00000000       0x2c ..\obj\stm32f4xx_pwr.o
 .text.PWR_LowRegulatorLowVoltageCmd
                0x00000000       0x2c ..\obj\stm32f4xx_pwr.o
 .text.PWR_FlashPowerDownCmd
                0x00000000       0x20 ..\obj\stm32f4xx_pwr.o
 .text.PWR_EnterSTOPMode
                0x00000000       0x68 ..\obj\stm32f4xx_pwr.o
 .text.PWR_EnterUnderDriveSTOPMode
                0x00000000       0x68 ..\obj\stm32f4xx_pwr.o
 .text.PWR_GetFlagStatus
                0x00000000       0x34 ..\obj\stm32f4xx_pwr.o
 .text          0x00000000        0x0 ..\obj\slipif.o
 .data          0x00000000        0x0 ..\obj\slipif.o
 .bss           0x00000000        0x0 ..\obj\slipif.o
 .debug_info    0x00000000       0x72 ..\obj\slipif.o
 .debug_abbrev  0x00000000       0x26 ..\obj\slipif.o
 .debug_aranges
                0x00000000       0x18 ..\obj\slipif.o
 .debug_line    0x00000000       0x1d ..\obj\slipif.o
 .debug_str     0x00000000      0x1c1 ..\obj\slipif.o
 .comment       0x00000000       0x71 ..\obj\slipif.o
 .ARM.attributes
                0x00000000       0x39 ..\obj\slipif.o
 .text          0x00000000        0x0 ..\obj\memp.o
 .data          0x00000000        0x0 ..\obj\memp.o
 .text          0x00000000        0x0 ..\obj\autoip.o
 .data          0x00000000        0x0 ..\obj\autoip.o
 .bss           0x00000000        0x0 ..\obj\autoip.o
 .text.autoip_init
                0x00000000        0xc ..\obj\autoip.o
 .text.autoip_arp_probe
                0x00000000       0x4c ..\obj\autoip.o
 .text.autoip_bind
                0x00000000       0x5c ..\obj\autoip.o
 .text.autoip_network_changed
                0x00000000       0x2c ..\obj\autoip.o
 .text.autoip_stop
                0x00000000       0x24 ..\obj\autoip.o
 .text.autoip_tmr
                0x00000000      0x16c ..\obj\autoip.o
 .text          0x00000000        0x0 ..\obj\tm_stm32f4_adc.o
 .data          0x00000000        0x0 ..\obj\tm_stm32f4_adc.o
 .bss           0x00000000        0x0 ..\obj\tm_stm32f4_adc.o
 .text.TM_ADC_EnableVbat
                0x00000000       0x1c ..\obj\tm_stm32f4_adc.o
 .text.TM_ADC_DisableVbat
                0x00000000       0x1c ..\obj\tm_stm32f4_adc.o
 .text.TM_ADC_ReadVbat
                0x00000000       0x60 ..\obj\tm_stm32f4_adc.o
 .text          0x00000000        0x0 ..\obj\tm_stm32f4_gps.o
 .text.TM_GPS_AddCustom
                0x00000000       0x6c ..\obj\tm_stm32f4_gps.o
 .text.TM_GPS_ConvertSpeed
                0x00000000      0x170 ..\obj\tm_stm32f4_gps.o
 .text.TM_GPS_ConvertFloat
                0x00000000       0xb4 ..\obj\tm_stm32f4_gps.o
 .text.TM_GPS_DistanceBetween
                0x00000000      0x3cc ..\obj\tm_stm32f4_gps.o
 .text          0x00000000        0x0 ..\obj\ip_frag.o
 .data          0x00000000        0x0 ..\obj\ip_frag.o
 .text.ip_reass_tmr
                0x00000000       0x54 ..\obj\ip_frag.o
 .text          0x00000000        0x0 ..\obj\netbuf.o
 .data          0x00000000        0x0 ..\obj\netbuf.o
 .bss           0x00000000        0x0 ..\obj\netbuf.o
 .debug_info    0x00000000       0x72 ..\obj\netbuf.o
 .debug_abbrev  0x00000000       0x26 ..\obj\netbuf.o
 .debug_aranges
                0x00000000       0x18 ..\obj\netbuf.o
 .debug_line    0x00000000       0x1d ..\obj\netbuf.o
 .debug_str     0x00000000      0x1bf ..\obj\netbuf.o
 .comment       0x00000000       0x71 ..\obj\netbuf.o
 .ARM.attributes
                0x00000000       0x39 ..\obj\netbuf.o
 .text          0x00000000        0x0 ..\obj\tcpip.o
 .data          0x00000000        0x0 ..\obj\tcpip.o
 .bss           0x00000000        0x0 ..\obj\tcpip.o
 .debug_info    0x00000000       0x72 ..\obj\tcpip.o
 .debug_abbrev  0x00000000       0x26 ..\obj\tcpip.o
 .debug_aranges
                0x00000000       0x18 ..\obj\tcpip.o
 .debug_line    0x00000000       0x1d ..\obj\tcpip.o
 .debug_str     0x00000000      0x1be ..\obj\tcpip.o
 .comment       0x00000000       0x71 ..\obj\tcpip.o
 .ARM.attributes
                0x00000000       0x39 ..\obj\tcpip.o
 .text          0x00000000        0x0 ..\obj\sfp.o
 .data          0x00000000        0x0 ..\obj\sfp.o
 .bss           0x00000000        0x0 ..\obj\sfp.o
 .text.SFP_SelectPort
                0x00000000      0x394 ..\obj\sfp.o
 .text.dbm_2_mw
                0x00000000       0x58 ..\obj\sfp.o
 .text          0x00000000        0x0 ..\obj\startup_stm32f4xx.o
 .data          0x00000000        0x0 ..\obj\startup_stm32f4xx.o
 .bss           0x00000000        0x0 ..\obj\startup_stm32f4xx.o
 .text          0x00000000        0x0 ..\obj\tm_stm32f4_id.o
 .data          0x00000000        0x0 ..\obj\tm_stm32f4_id.o
 .bss           0x00000000        0x0 ..\obj\tm_stm32f4_id.o
 .debug_info    0x00000000       0x8e ..\obj\tm_stm32f4_id.o
 .debug_abbrev  0x00000000       0x49 ..\obj\tm_stm32f4_id.o
 .debug_aranges
                0x00000000       0x18 ..\obj\tm_stm32f4_id.o
 .debug_line    0x00000000       0xcb ..\obj\tm_stm32f4_id.o
 .debug_str     0x00000000      0x19f ..\obj\tm_stm32f4_id.o
 .comment       0x00000000       0x71 ..\obj\tm_stm32f4_id.o
 .ARM.attributes
                0x00000000       0x39 ..\obj\tm_stm32f4_id.o
 .text          0x00000000        0x0 ..\obj\stm32f4x7_eth.o
 .data          0x00000000        0x0 ..\obj\stm32f4x7_eth.o
 .bss           0x00000000        0x0 ..\obj\stm32f4x7_eth.o
 .text.ETH_GetFlowControlBusyStatus
                0x00000000       0x34 ..\obj\stm32f4x7_eth.o
 .text.ETH_InitiatePauseControlFrame
                0x00000000       0x1c ..\obj\stm32f4x7_eth.o
 .text.ETH_BackPressureActivationCmd
                0x00000000       0x38 ..\obj\stm32f4x7_eth.o
 .text.ETH_GetMACFlagStatus
                0x00000000       0x34 ..\obj\stm32f4x7_eth.o
 .text.ETH_GetMACITStatus
                0x00000000       0x34 ..\obj\stm32f4x7_eth.o
 .text.ETH_MACITConfig
                0x00000000       0x3c ..\obj\stm32f4x7_eth.o
 .text.ETH_GetMACAddress
                0x00000000       0x74 ..\obj\stm32f4x7_eth.o
 .text.ETH_MACAddressPerfectFilterCmd
                0x00000000       0x50 ..\obj\stm32f4x7_eth.o
 .text.ETH_MACAddressFilterConfig
                0x00000000       0x4c ..\obj\stm32f4x7_eth.o
 .text.ETH_MACAddressMaskBytesFilterConfig
                0x00000000       0x44 ..\obj\stm32f4x7_eth.o
 .text.ETH_Get_Received_Frame_interrupt
                0x00000000      0x144 ..\obj\stm32f4x7_eth.o
 .text.ETH_GetDMATxDescFlagStatus
                0x00000000       0x34 ..\obj\stm32f4x7_eth.o
 .text.ETH_GetDMATxDescCollisionCount
                0x00000000       0x20 ..\obj\stm32f4x7_eth.o
 .text.ETH_SetDMATxDescOwnBit
                0x00000000       0x20 ..\obj\stm32f4x7_eth.o
 .text.ETH_DMATxDescTransmitITConfig
                0x00000000       0x38 ..\obj\stm32f4x7_eth.o
 .text.ETH_DMATxDescFrameSegmentConfig
                0x00000000       0x20 ..\obj\stm32f4x7_eth.o
 .text.ETH_DMATxDescCRCCmd
                0x00000000       0x38 ..\obj\stm32f4x7_eth.o
 .text.ETH_DMATxDescSecondAddressChainedCmd
                0x00000000       0x38 ..\obj\stm32f4x7_eth.o
 .text.ETH_DMATxDescShortFramePaddingCmd
                0x00000000       0x38 ..\obj\stm32f4x7_eth.o
 .text.ETH_DMATxDescBufferSizeConfig
                0x00000000       0x28 ..\obj\stm32f4x7_eth.o
 .text.ETH_GetDMARxDescFlagStatus
                0x00000000       0x34 ..\obj\stm32f4x7_eth.o
 .text.ETH_GetDMAPTPRxDescExtendedFlagStatus
                0x00000000       0x34 ..\obj\stm32f4x7_eth.o
 .text.ETH_SetDMARxDescOwnBit
                0x00000000       0x20 ..\obj\stm32f4x7_eth.o
 .text.ETH_GetDMARxDescFrameLength
                0x00000000       0x24 ..\obj\stm32f4x7_eth.o
 .text.ETH_DMARxDescReceiveITConfig
                0x00000000       0x38 ..\obj\stm32f4x7_eth.o
 .text.ETH_GetDMARxDescBufferSize
                0x00000000       0x34 ..\obj\stm32f4x7_eth.o
 .text.ETH_GetRxPktSize
                0x00000000       0x40 ..\obj\stm32f4x7_eth.o
 .text.ETH_EnhancedDescriptorCmd
                0x00000000       0x48 ..\obj\stm32f4x7_eth.o
 .text.ETH_GetDMAFlagStatus
                0x00000000       0x3c ..\obj\stm32f4x7_eth.o
 .text.ETH_DMAClearFlag
                0x00000000       0x24 ..\obj\stm32f4x7_eth.o
 .text.ETH_DMAITConfig
                0x00000000       0x54 ..\obj\stm32f4x7_eth.o
 .text.ETH_GetDMAITStatus
                0x00000000       0x3c ..\obj\stm32f4x7_eth.o
 .text.ETH_DMAClearITPendingBit
                0x00000000       0x24 ..\obj\stm32f4x7_eth.o
 .text.ETH_GetTransmitProcessState
                0x00000000       0x20 ..\obj\stm32f4x7_eth.o
 .text.ETH_GetReceiveProcessState
                0x00000000       0x20 ..\obj\stm32f4x7_eth.o
 .text.ETH_GetFlushTransmitFIFOStatus
                0x00000000       0x38 ..\obj\stm32f4x7_eth.o
 .text.ETH_GetDMAOverflowStatus
                0x00000000       0x38 ..\obj\stm32f4x7_eth.o
 .text.ETH_GetRxOverflowMissedFrameCounter
                0x00000000       0x24 ..\obj\stm32f4x7_eth.o
 .text.ETH_GetBufferUnavailableMissedFrameCounter
                0x00000000       0x1c ..\obj\stm32f4x7_eth.o
 .text.ETH_GetCurrentTxDescStartAddress
                0x00000000       0x1c ..\obj\stm32f4x7_eth.o
 .text.ETH_GetCurrentRxDescStartAddress
                0x00000000       0x1c ..\obj\stm32f4x7_eth.o
 .text.ETH_GetCurrentTxBufferAddress
                0x00000000       0x1c ..\obj\stm32f4x7_eth.o
 .text.ETH_GetCurrentRxBufferAddress
                0x00000000       0x1c ..\obj\stm32f4x7_eth.o
 .text.ETH_ResumeDMATransmission
                0x00000000       0x1c ..\obj\stm32f4x7_eth.o
 .text.ETH_ResumeDMAReception
                0x00000000       0x1c ..\obj\stm32f4x7_eth.o
 .text.ETH_SetReceiveWatchdogTimer
                0x00000000       0x24 ..\obj\stm32f4x7_eth.o
 .text.ETH_PHYLoopBackCmd
                0x00000000       0x5c ..\obj\stm32f4x7_eth.o
 .text.ETH_ResetWakeUpFrameFilterRegisterPointer
                0x00000000       0x1c ..\obj\stm32f4x7_eth.o
 .text.ETH_SetWakeUpFrameFilterRegister
                0x00000000       0x3c ..\obj\stm32f4x7_eth.o
 .text.ETH_GlobalUnicastWakeUpCmd
                0x00000000       0x38 ..\obj\stm32f4x7_eth.o
 .text.ETH_GetPMTFlagStatus
                0x00000000       0x34 ..\obj\stm32f4x7_eth.o
 .text.ETH_WakeUpFrameDetectionCmd
                0x00000000       0x38 ..\obj\stm32f4x7_eth.o
 .text.ETH_MagicPacketDetectionCmd
                0x00000000       0x38 ..\obj\stm32f4x7_eth.o
 .text.ETH_PowerDownCmd
                0x00000000       0x38 ..\obj\stm32f4x7_eth.o
 .text.ETH_MMCCounterFullPreset
                0x00000000       0x20 ..\obj\stm32f4x7_eth.o
 .text.ETH_MMCCounterHalfPreset
                0x00000000       0x30 ..\obj\stm32f4x7_eth.o
 .text.ETH_MMCCounterFreezeCmd
                0x00000000       0x40 ..\obj\stm32f4x7_eth.o
 .text.ETH_MMCResetOnReadCmd
                0x00000000       0x40 ..\obj\stm32f4x7_eth.o
 .text.ETH_MMCCounterRolloverCmd
                0x00000000       0x40 ..\obj\stm32f4x7_eth.o
 .text.ETH_MMCCountersReset
                0x00000000       0x20 ..\obj\stm32f4x7_eth.o
 .text.ETH_MMCITConfig
                0x00000000       0x84 ..\obj\stm32f4x7_eth.o
 .text.ETH_GetMMCITStatus
                0x00000000       0x78 ..\obj\stm32f4x7_eth.o
 .text.ETH_GetMMCRegister
                0x00000000       0x20 ..\obj\stm32f4x7_eth.o
 .text          0x00000000        0x0 ..\obj\sys.o
 .data          0x00000000        0x0 ..\obj\sys.o
 .bss           0x00000000        0x0 ..\obj\sys.o
 .debug_info    0x00000000       0x72 ..\obj\sys.o
 .debug_abbrev  0x00000000       0x26 ..\obj\sys.o
 .debug_aranges
                0x00000000       0x18 ..\obj\sys.o
 .debug_line    0x00000000       0x1d ..\obj\sys.o
 .debug_str     0x00000000      0x1bd ..\obj\sys.o
 .comment       0x00000000       0x71 ..\obj\sys.o
 .ARM.attributes
                0x00000000       0x39 ..\obj\sys.o
 .text          0x00000000        0x0 ..\obj\ip_addr.o
 .data          0x00000000        0x0 ..\obj\ip_addr.o
 .bss           0x00000000        0x0 ..\obj\ip_addr.o
 .text          0x00000000        0x0 ..\obj\inet_chksum.o
 .data          0x00000000        0x0 ..\obj\inet_chksum.o
 .bss           0x00000000        0x0 ..\obj\inet_chksum.o
 .text          0x00000000        0x0 ..\obj\main.o
 .data          0x00000000        0x0 ..\obj\main.o
 .bss           0x00000000        0x4 ..\obj\main.o
 .text          0x00000000        0x0 ..\obj\tm_stm32f4_button.o
 .data          0x00000000        0x0 ..\obj\tm_stm32f4_button.o
 .text.TM_BUTTON_SetPressTime
                0x00000000       0x2c ..\obj\tm_stm32f4_button.o
 .text          0x00000000        0x0 ..\obj\stm32f4xx_rcc.o
 .bss           0x00000000        0x0 ..\obj\stm32f4xx_rcc.o
 .text.RCC_HSEConfig
                0x00000000       0x24 ..\obj\stm32f4xx_rcc.o
 .text.RCC_WaitForHSEStartUp
                0x00000000       0x50 ..\obj\stm32f4xx_rcc.o
 .text.RCC_AdjustHSICalibrationValue
                0x00000000       0x3c ..\obj\stm32f4xx_rcc.o
 .text.RCC_HSICmd
                0x00000000       0x20 ..\obj\stm32f4xx_rcc.o
 .text.RCC_PLLConfig
                0x00000000       0x3c ..\obj\stm32f4xx_rcc.o
 .text.RCC_PLLCmd
                0x00000000       0x20 ..\obj\stm32f4xx_rcc.o
 .text.RCC_PLLI2SConfig
                0x00000000       0x28 ..\obj\stm32f4xx_rcc.o
 .text.RCC_PLLI2SCmd
                0x00000000       0x20 ..\obj\stm32f4xx_rcc.o
 .text.RCC_PLLSAIConfig
                0x00000000       0x30 ..\obj\stm32f4xx_rcc.o
 .text.RCC_PLLSAICmd
                0x00000000       0x20 ..\obj\stm32f4xx_rcc.o
 .text.RCC_ClockSecuritySystemCmd
                0x00000000       0x20 ..\obj\stm32f4xx_rcc.o
 .text.RCC_MCO1Config
                0x00000000       0x3c ..\obj\stm32f4xx_rcc.o
 .text.RCC_MCO2Config
                0x00000000       0x3c ..\obj\stm32f4xx_rcc.o
 .text.RCC_SYSCLKConfig
                0x00000000       0x38 ..\obj\stm32f4xx_rcc.o
 .text.RCC_GetSYSCLKSource
                0x00000000       0x20 ..\obj\stm32f4xx_rcc.o
 .text.RCC_HCLKConfig
                0x00000000       0x38 ..\obj\stm32f4xx_rcc.o
 .text.RCC_PCLK1Config
                0x00000000       0x38 ..\obj\stm32f4xx_rcc.o
 .text.RCC_PCLK2Config
                0x00000000       0x38 ..\obj\stm32f4xx_rcc.o
 .text.RCC_BackupResetCmd
                0x00000000       0x20 ..\obj\stm32f4xx_rcc.o
 .text.RCC_I2SCLKConfig
                0x00000000       0x1c ..\obj\stm32f4xx_rcc.o
 .text.RCC_SAIPLLI2SClkDivConfig
                0x00000000       0x3c ..\obj\stm32f4xx_rcc.o
 .text.RCC_SAIPLLSAIClkDivConfig
                0x00000000       0x40 ..\obj\stm32f4xx_rcc.o
 .text.RCC_SAIBlockACLKConfig
                0x00000000       0x3c ..\obj\stm32f4xx_rcc.o
 .text.RCC_SAIBlockBCLKConfig
                0x00000000       0x3c ..\obj\stm32f4xx_rcc.o
 .text.RCC_LTDCCLKDivConfig
                0x00000000       0x3c ..\obj\stm32f4xx_rcc.o
 .text.RCC_TIMCLKPresConfig
                0x00000000       0x1c ..\obj\stm32f4xx_rcc.o
 .text.RCC_AHB2PeriphClockCmd
                0x00000000       0x3c ..\obj\stm32f4xx_rcc.o
 .text.RCC_AHB3PeriphClockCmd
                0x00000000       0x3c ..\obj\stm32f4xx_rcc.o
 .text.RCC_AHB2PeriphResetCmd
                0x00000000       0x3c ..\obj\stm32f4xx_rcc.o
 .text.RCC_AHB3PeriphResetCmd
                0x00000000       0x3c ..\obj\stm32f4xx_rcc.o
 .text.RCC_AHB1PeriphClockLPModeCmd
                0x00000000       0x3c ..\obj\stm32f4xx_rcc.o
 .text.RCC_AHB2PeriphClockLPModeCmd
                0x00000000       0x3c ..\obj\stm32f4xx_rcc.o
 .text.RCC_AHB3PeriphClockLPModeCmd
                0x00000000       0x3c ..\obj\stm32f4xx_rcc.o
 .text.RCC_APB1PeriphClockLPModeCmd
                0x00000000       0x3c ..\obj\stm32f4xx_rcc.o
 .text.RCC_APB2PeriphClockLPModeCmd
                0x00000000       0x3c ..\obj\stm32f4xx_rcc.o
 .text.RCC_LSEModeConfig
                0x00000000       0x38 ..\obj\stm32f4xx_rcc.o
 .text.RCC_ITConfig
                0x00000000       0x4c ..\obj\stm32f4xx_rcc.o
 .text.RCC_ClearFlag
                0x00000000       0x1c ..\obj\stm32f4xx_rcc.o
 .text.RCC_GetITStatus
                0x00000000       0x38 ..\obj\stm32f4xx_rcc.o
 .text.RCC_ClearITPendingBit
                0x00000000       0x20 ..\obj\stm32f4xx_rcc.o
 .text          0x00000000        0x0 ..\obj\vt100.o
 .data          0x00000000        0x0 ..\obj\vt100.o
 .bss           0x00000000        0x0 ..\obj\vt100.o
 .rodata        0x00000000       0x31 ..\obj\vt100.o
 .text.vt100Init
                0x00000000       0x1c ..\obj\vt100.o
 .text.vt100ClearScreen
                0x00000000       0x1c ..\obj\vt100.o
 .text.vt100CursorHome
                0x00000000       0x1c ..\obj\vt100.o
 .text.vt100SetAttr
                0x00000000       0x30 ..\obj\vt100.o
 .text.vt100SetCursorMode
                0x00000000       0x34 ..\obj\vt100.o
 .text.vt100SetCursorPos
                0x00000000       0x34 ..\obj\vt100.o
 .debug_info    0x00000000      0x2d3 ..\obj\vt100.o
 .debug_abbrev  0x00000000       0xeb ..\obj\vt100.o
 .debug_aranges
                0x00000000       0x48 ..\obj\vt100.o
 .debug_ranges  0x00000000       0x38 ..\obj\vt100.o
 .debug_line    0x00000000      0x1b9 ..\obj\vt100.o
 .debug_str     0x00000000      0x2d3 ..\obj\vt100.o
 .comment       0x00000000       0x71 ..\obj\vt100.o
 .debug_frame   0x00000000       0xe8 ..\obj\vt100.o
 .ARM.attributes
                0x00000000       0x39 ..\obj\vt100.o
 COMMON         0x00000000       0x64 ..\obj\vt100.o
 .text          0x00000000        0x0 ..\obj\netconf.o
 .data          0x00000000        0x0 ..\obj\netconf.o
 .bss           0x00000000        0xc ..\obj\netconf.o
 .text.LwIP_Periodic_Handle
                0x00000000       0x48 ..\obj\netconf.o
 .text          0x00000000        0x0 ..\obj\netdb.o
 .data          0x00000000        0x0 ..\obj\netdb.o
 .bss           0x00000000        0x0 ..\obj\netdb.o
 .debug_info    0x00000000       0x72 ..\obj\netdb.o
 .debug_abbrev  0x00000000       0x26 ..\obj\netdb.o
 .debug_aranges
                0x00000000       0x18 ..\obj\netdb.o
 .debug_line    0x00000000       0x1d ..\obj\netdb.o
 .debug_str     0x00000000      0x1be ..\obj\netdb.o
 .comment       0x00000000       0x71 ..\obj\netdb.o
 .ARM.attributes
                0x00000000       0x39 ..\obj\netdb.o
 .text          0x00000000        0x0 ..\obj\cmdline_functions.o
 .data          0x00000000        0x0 ..\obj\cmdline_functions.o
 .bss           0x00000000        0x0 ..\obj\cmdline_functions.o
 .text.getTime  0x00000000       0x54 ..\obj\cmdline_functions.o
 .text          0x00000000        0x0 ..\obj\tm_stm32f4_usart.o
 .bss           0x00000000        0x0 ..\obj\tm_stm32f4_usart.o
 .text.TM_USART_InitWithFlowControl
                0x00000000      0x124 ..\obj\tm_stm32f4_usart.o
 .text.TM_USART_Gets
                0x00000000       0x94 ..\obj\tm_stm32f4_usart.o
 .text.TM_USART_BufferFull
                0x00000000       0x2c ..\obj\tm_stm32f4_usart.o
 .text.TM_USART_ClearBuffer
                0x00000000       0x28 ..\obj\tm_stm32f4_usart.o
 .text.TM_USART_SetCustomStringEndCharacter
                0x00000000       0x20 ..\obj\tm_stm32f4_usart.o
 .text.TM_USART_FindCharacter
                0x00000000       0x60 ..\obj\tm_stm32f4_usart.o
 .text.TM_USART_Send
                0x00000000       0x68 ..\obj\tm_stm32f4_usart.o
 .text          0x00000000        0x0 ..\obj\init.o
 .data          0x00000000        0x0 ..\obj\init.o
 .bss           0x00000000        0x0 ..\obj\init.o
 .text.lwip_init
                0x00000000       0x14 ..\obj\init.o
 .debug_info    0x00000000       0x8b ..\obj\init.o
 .debug_abbrev  0x00000000       0x42 ..\obj\init.o
 .debug_aranges
                0x00000000       0x20 ..\obj\init.o
 .debug_ranges  0x00000000       0x10 ..\obj\init.o
 .debug_line    0x00000000       0x80 ..\obj\init.o
 .debug_str     0x00000000      0x1c8 ..\obj\init.o
 .comment       0x00000000       0x71 ..\obj\init.o
 .debug_frame   0x00000000       0x2c ..\obj\init.o
 .ARM.attributes
                0x00000000       0x39 ..\obj\init.o
 .text          0x00000000        0x0 ..\obj\stm32f4x7_eth_bsp.o
 .data          0x00000000        0x0 ..\obj\stm32f4x7_eth_bsp.o
 .text          0x00000000        0x0 ..\obj\stm32f4xx_adc.o
 .data          0x00000000        0x0 ..\obj\stm32f4xx_adc.o
 .bss           0x00000000        0x0 ..\obj\stm32f4xx_adc.o
 .text.ADC_DeInit
                0x00000000       0x1c ..\obj\stm32f4xx_adc.o
 .text.ADC_StructInit
                0x00000000       0x3c ..\obj\stm32f4xx_adc.o
 .text.ADC_CommonStructInit
                0x00000000       0x2c ..\obj\stm32f4xx_adc.o
 .text.ADC_Cmd  0x00000000       0x38 ..\obj\stm32f4xx_adc.o
 .text.ADC_AnalogWatchdogCmd
                0x00000000       0x38 ..\obj\stm32f4xx_adc.o
 .text.ADC_AnalogWatchdogThresholdsConfig
                0x00000000       0x28 ..\obj\stm32f4xx_adc.o
 .text.ADC_AnalogWatchdogSingleChannelConfig
                0x00000000       0x38 ..\obj\stm32f4xx_adc.o
 .text.ADC_TempSensorVrefintCmd
                0x00000000       0x38 ..\obj\stm32f4xx_adc.o
 .text.ADC_VBATCmd
                0x00000000       0x38 ..\obj\stm32f4xx_adc.o
 .text.ADC_SoftwareStartConv
                0x00000000       0x20 ..\obj\stm32f4xx_adc.o
 .text.ADC_GetSoftwareStartConvStatus
                0x00000000       0x30 ..\obj\stm32f4xx_adc.o
 .text.ADC_EOCOnEachRegularChannelCmd
                0x00000000       0x38 ..\obj\stm32f4xx_adc.o
 .text.ADC_ContinuousModeCmd
                0x00000000       0x38 ..\obj\stm32f4xx_adc.o
 .text.ADC_DiscModeChannelCountConfig
                0x00000000       0x44 ..\obj\stm32f4xx_adc.o
 .text.ADC_DiscModeCmd
                0x00000000       0x38 ..\obj\stm32f4xx_adc.o
 .text.ADC_GetConversionValue
                0x00000000       0x1c ..\obj\stm32f4xx_adc.o
 .text.ADC_GetMultiModeConversionValue
                0x00000000       0x18 ..\obj\stm32f4xx_adc.o
 .text.ADC_DMACmd
                0x00000000       0x38 ..\obj\stm32f4xx_adc.o
 .text.ADC_DMARequestAfterLastTransferCmd
                0x00000000       0x38 ..\obj\stm32f4xx_adc.o
 .text.ADC_MultiModeDMARequestAfterLastTransferCmd
                0x00000000       0x38 ..\obj\stm32f4xx_adc.o
 .text.ADC_InjectedChannelConfig
                0x00000000      0x120 ..\obj\stm32f4xx_adc.o
 .text.ADC_InjectedSequencerLengthConfig
                0x00000000       0x44 ..\obj\stm32f4xx_adc.o
 .text.ADC_SetInjectedOffset
                0x00000000       0x34 ..\obj\stm32f4xx_adc.o
 .text.ADC_ExternalTrigInjectedConvConfig
                0x00000000       0x34 ..\obj\stm32f4xx_adc.o
 .text.ADC_ExternalTrigInjectedConvEdgeConfig
                0x00000000       0x34 ..\obj\stm32f4xx_adc.o
 .text.ADC_SoftwareStartInjectedConv
                0x00000000       0x20 ..\obj\stm32f4xx_adc.o
 .text.ADC_GetSoftwareStartInjectedConvCmdStatus
                0x00000000       0x30 ..\obj\stm32f4xx_adc.o
 .text.ADC_AutoInjectedConvCmd
                0x00000000       0x38 ..\obj\stm32f4xx_adc.o
 .text.ADC_InjectedDiscModeCmd
                0x00000000       0x38 ..\obj\stm32f4xx_adc.o
 .text.ADC_GetInjectedConversionValue
                0x00000000       0x30 ..\obj\stm32f4xx_adc.o
 .text.ADC_ITConfig
                0x00000000       0x50 ..\obj\stm32f4xx_adc.o
 .text.ADC_GetFlagStatus
                0x00000000       0x34 ..\obj\stm32f4xx_adc.o
 .text.ADC_ClearFlag
                0x00000000       0x20 ..\obj\stm32f4xx_adc.o
 .text.ADC_GetITStatus
                0x00000000       0x5c ..\obj\stm32f4xx_adc.o
 .text.ADC_ClearITPendingBit
                0x00000000       0x2c ..\obj\stm32f4xx_adc.o
 .text          0x00000000        0x0 ..\obj\ethernetif.o
 .data          0x00000000        0x0 ..\obj\ethernetif.o
 .bss           0x00000000        0x0 ..\obj\ethernetif.o
 .text          0x00000000        0x0 ..\obj\etharp.o
 .data          0x00000000        0x0 ..\obj\etharp.o
 .text.etharp_tmr
                0x00000000       0xfc ..\obj\etharp.o
 .text.etharp_find_addr
                0x00000000       0x7c ..\obj\etharp.o
 .text          0x00000000        0x0 ..\obj\tm_stm32f4_delay.o
 .data          0x00000000        0x0 ..\obj\tm_stm32f4_delay.o
 .text.TM_DELAY_EnableDelayTimer
                0x00000000       0x30 ..\obj\tm_stm32f4_delay.o
 .text.TM_DELAY_DisableDelayTimer
                0x00000000       0x20 ..\obj\tm_stm32f4_delay.o
 .text.TM_DELAY_TimerCreate
                0x00000000       0x7c ..\obj\tm_stm32f4_delay.o
 .text.TM_DELAY_TimerDelete
                0x00000000       0xa4 ..\obj\tm_stm32f4_delay.o
 .text.TM_DELAY_TimerStop
                0x00000000       0x1c ..\obj\tm_stm32f4_delay.o
 .text.TM_DELAY_TimerStart
                0x00000000       0x1c ..\obj\tm_stm32f4_delay.o
 .text.TM_DELAY_TimerReset
                0x00000000       0x20 ..\obj\tm_stm32f4_delay.o
 .text.TM_DELAY_TimerAutoReload
                0x00000000       0x20 ..\obj\tm_stm32f4_delay.o
 .text.TM_DELAY_TimerAutoReloadValue
                0x00000000       0x20 ..\obj\tm_stm32f4_delay.o
 COMMON         0x00000000        0x4 ..\obj\tm_stm32f4_delay.o
 .text          0x00000000        0x0 ..\obj\SI7021.o
 .text.SI7021_sensorExists
                0x00000000       0x18 ..\obj\SI7021.o
 .text.SI7021_getFahrenheitHundredths
                0x00000000       0x64 ..\obj\SI7021.o
 .text.SI7021_getCelsiusHundredths
                0x00000000       0x48 ..\obj\SI7021.o
 .text.SI7021_getHumidityPercent
                0x00000000       0x44 ..\obj\SI7021.o
 .text.SI7021_command
                0x00000000       0x28 ..\obj\SI7021.o
 .text.SI7021_getSerialBytes
                0x00000000       0x40 ..\obj\SI7021.o
 .text.SI7021_getDeviceId
                0x00000000       0x1c ..\obj\SI7021.o
 .text          0x00000000        0x0 ..\obj\pbuf.o
 .data          0x00000000        0x0 ..\obj\pbuf.o
 .bss           0x00000000        0x0 ..\obj\pbuf.o
 .text.pbuf_dechain
                0x00000000       0x54 ..\obj\pbuf.o
 .text.pbuf_coalesce
                0x00000000       0x50 ..\obj\pbuf.o
 .text          0x00000000        0x0 ..\obj\stats.o
 .data          0x00000000        0x0 ..\obj\stats.o
 .bss           0x00000000        0x0 ..\obj\stats.o
 .debug_info    0x00000000       0x72 ..\obj\stats.o
 .debug_abbrev  0x00000000       0x26 ..\obj\stats.o
 .debug_aranges
                0x00000000       0x18 ..\obj\stats.o
 .debug_line    0x00000000       0x1d ..\obj\stats.o
 .debug_str     0x00000000      0x1bf ..\obj\stats.o
 .comment       0x00000000       0x71 ..\obj\stats.o
 .ARM.attributes
                0x00000000       0x39 ..\obj\stats.o
 .text          0x00000000        0x0 ..\obj\inet.o
 .data          0x00000000        0x0 ..\obj\inet.o
 .bss           0x00000000       0x10 ..\obj\inet.o
 .text.inet_addr
                0x00000000       0x2c ..\obj\inet.o
 .text.inet_aton
                0x00000000      0x234 ..\obj\inet.o
 .text.inet_ntoa
                0x00000000       0xc8 ..\obj\inet.o
 .text          0x00000000        0x0 ..\obj\tm_stm32f4_i2c.o
 .text.TM_I2C_Read
                0x00000000       0x50 ..\obj\tm_stm32f4_i2c.o
 .text.TM_I2C_ReadNoRegister
                0x00000000       0x30 ..\obj\tm_stm32f4_i2c.o
 .text.TM_I2C_Write
                0x00000000       0x48 ..\obj\tm_stm32f4_i2c.o
 .text.TM_I2C_WriteNoRegister
                0x00000000       0x34 ..\obj\tm_stm32f4_i2c.o
 .text          0x00000000        0x0 ..\obj\netif.o
 .data          0x00000000        0x0 ..\obj\netif.o
 .text.netif_remove
                0x00000000       0x74 ..\obj\netif.o
 .text.netif_find
                0x00000000       0x70 ..\obj\netif.o
 .text          0x00000000        0x0 ..\obj\api_msg.o
 .data          0x00000000        0x0 ..\obj\api_msg.o
 .bss           0x00000000        0x0 ..\obj\api_msg.o
 .debug_info    0x00000000       0x72 ..\obj\api_msg.o
 .debug_abbrev  0x00000000       0x26 ..\obj\api_msg.o
 .debug_aranges
                0x00000000       0x18 ..\obj\api_msg.o
 .debug_line    0x00000000       0x1d ..\obj\api_msg.o
 .debug_str     0x00000000      0x1c0 ..\obj\api_msg.o
 .comment       0x00000000       0x71 ..\obj\api_msg.o
 .ARM.attributes
                0x00000000       0x39 ..\obj\api_msg.o
 .text          0x00000000        0x0 ..\obj\stm32f4xx_gpio.o
 .data          0x00000000        0x0 ..\obj\stm32f4xx_gpio.o
 .bss           0x00000000        0x0 ..\obj\stm32f4xx_gpio.o
 .text.GPIO_DeInit
                0x00000000      0x164 ..\obj\stm32f4xx_gpio.o
 .text.GPIO_StructInit
                0x00000000       0x34 ..\obj\stm32f4xx_gpio.o
 .text.GPIO_PinLockConfig
                0x00000000       0x44 ..\obj\stm32f4xx_gpio.o
 .text.GPIO_ReadInputDataBit
                0x00000000       0x34 ..\obj\stm32f4xx_gpio.o
 .text.GPIO_ReadInputData
                0x00000000       0x1c ..\obj\stm32f4xx_gpio.o
 .text.GPIO_ReadOutputDataBit
                0x00000000       0x34 ..\obj\stm32f4xx_gpio.o
 .text.GPIO_ReadOutputData
                0x00000000       0x1c ..\obj\stm32f4xx_gpio.o
 .text.GPIO_WriteBit
                0x00000000       0x30 ..\obj\stm32f4xx_gpio.o
 .text.GPIO_Write
                0x00000000       0x1c ..\obj\stm32f4xx_gpio.o
 .text.GPIO_ToggleBits
                0x00000000       0x24 ..\obj\stm32f4xx_gpio.o
 .text          0x00000000        0x0 ..\obj\system_stm32f4xx.o
 .bss           0x00000000        0x0 ..\obj\system_stm32f4xx.o
 .text.SystemCoreClockUpdate
                0x00000000       0xf8 ..\obj\system_stm32f4xx.o
 .text          0x00000000        0x0 ..\obj\syscalls.o
 .data          0x00000000        0x0 ..\obj\syscalls.o
 .text.link     0x00000000       0x1c ..\obj\syscalls.o
 .text.abort    0x00000000        0x8 ..\obj\syscalls.o
 .text          0x00000000        0x0 ..\obj\stm32f4xx_dma.o
 .data          0x00000000        0x0 ..\obj\stm32f4xx_dma.o
 .bss           0x00000000        0x0 ..\obj\stm32f4xx_dma.o
 .text.DMA_DeInit
                0x00000000      0x1a4 ..\obj\stm32f4xx_dma.o
 .text.DMA_Init
                0x00000000       0xac ..\obj\stm32f4xx_dma.o
 .text.DMA_StructInit
                0x00000000       0x6c ..\obj\stm32f4xx_dma.o
 .text.DMA_Cmd  0x00000000       0x38 ..\obj\stm32f4xx_dma.o
 .text.DMA_PeriphIncOffsetSizeConfig
                0x00000000       0x34 ..\obj\stm32f4xx_dma.o
 .text.DMA_FlowControllerConfig
                0x00000000       0x34 ..\obj\stm32f4xx_dma.o
 .text.DMA_SetCurrDataCounter
                0x00000000       0x1c ..\obj\stm32f4xx_dma.o
 .text.DMA_GetCurrDataCounter
                0x00000000       0x1c ..\obj\stm32f4xx_dma.o
 .text.DMA_DoubleBufferModeConfig
                0x00000000       0x3c ..\obj\stm32f4xx_dma.o
 .text.DMA_DoubleBufferModeCmd
                0x00000000       0x38 ..\obj\stm32f4xx_dma.o
 .text.DMA_MemoryTargetConfig
                0x00000000       0x2c ..\obj\stm32f4xx_dma.o
 .text.DMA_GetCurrentMemoryTarget
                0x00000000       0x30 ..\obj\stm32f4xx_dma.o
 .text.DMA_GetCmdStatus
                0x00000000       0x30 ..\obj\stm32f4xx_dma.o
 .text.DMA_GetFIFOStatus
                0x00000000       0x24 ..\obj\stm32f4xx_dma.o
 .text.DMA_GetFlagStatus
                0x00000000       0x78 ..\obj\stm32f4xx_dma.o
 .text.DMA_ClearFlag
                0x00000000       0x5c ..\obj\stm32f4xx_dma.o
 .text.DMA_ITConfig
                0x00000000       0x74 ..\obj\stm32f4xx_dma.o
 .text.DMA_GetITStatus
                0x00000000       0xb0 ..\obj\stm32f4xx_dma.o
 .text.DMA_ClearITPendingBit
                0x00000000       0x5c ..\obj\stm32f4xx_dma.o
 .debug_info    0x00000000      0x739 ..\obj\stm32f4xx_dma.o
 .debug_abbrev  0x00000000      0x155 ..\obj\stm32f4xx_dma.o
 .debug_aranges
                0x00000000       0xb0 ..\obj\stm32f4xx_dma.o
 .debug_ranges  0x00000000       0xa0 ..\obj\stm32f4xx_dma.o
 .debug_line    0x00000000      0x38e ..\obj\stm32f4xx_dma.o
 .debug_str     0x00000000      0x56b ..\obj\stm32f4xx_dma.o
 .comment       0x00000000       0x71 ..\obj\stm32f4xx_dma.o
 .debug_frame   0x00000000      0x308 ..\obj\stm32f4xx_dma.o
 .ARM.attributes
                0x00000000       0x39 ..\obj\stm32f4xx_dma.o
 .text          0x00000000        0x0 ..\obj\tm_stm32f4_rtc.o
 .text.TM_RTC_SetDateTimeString
                0x00000000      0x21c ..\obj\tm_stm32f4_rtc.o
 .text.TM_RTC_GetDaysInMonth
                0x00000000       0x98 ..\obj\tm_stm32f4_rtc.o
 .text.TM_RTC_GetDaysInYear
                0x00000000       0x6c ..\obj\tm_stm32f4_rtc.o
 .text.TM_RTC_GetDateTimeFromUnix
                0x00000000      0x208 ..\obj\tm_stm32f4_rtc.o
 .text.TM_RTC_SetAlarm
                0x00000000       0xfc ..\obj\tm_stm32f4_rtc.o
 .text.TM_RTC_DisableAlarm
                0x00000000       0xac ..\obj\tm_stm32f4_rtc.o
 .text.TM_RTC_WriteBackupRegister
                0x00000000       0x30 ..\obj\tm_stm32f4_rtc.o
 .text.TM_RTC_ReadBackupRegister
                0x00000000       0x30 ..\obj\tm_stm32f4_rtc.o
 .text          0x00000000        0x0 ..\obj\sockets.o
 .data          0x00000000        0x0 ..\obj\sockets.o
 .bss           0x00000000        0x0 ..\obj\sockets.o
 .debug_info    0x00000000       0x72 ..\obj\sockets.o
 .debug_abbrev  0x00000000       0x26 ..\obj\sockets.o
 .debug_aranges
                0x00000000       0x18 ..\obj\sockets.o
 .debug_line    0x00000000       0x1d ..\obj\sockets.o
 .debug_str     0x00000000      0x1c0 ..\obj\sockets.o
 .comment       0x00000000       0x71 ..\obj\sockets.o
 .ARM.attributes
                0x00000000       0x39 ..\obj\sockets.o
 .text          0x00000000        0x0 ..\obj\igmp.o
 .data          0x00000000        0x0 ..\obj\igmp.o
 .bss           0x00000000        0x0 ..\obj\igmp.o
 .debug_info    0x00000000       0x72 ..\obj\igmp.o
 .debug_abbrev  0x00000000       0x26 ..\obj\igmp.o
 .debug_aranges
                0x00000000       0x18 ..\obj\igmp.o
 .debug_line    0x00000000       0x1d ..\obj\igmp.o
 .debug_str     0x00000000      0x1c3 ..\obj\igmp.o
 .comment       0x00000000       0x71 ..\obj\igmp.o
 .ARM.attributes
                0x00000000       0x39 ..\obj\igmp.o
 .text          0x00000000        0x0 ..\obj\utilities_new.o
 .data          0x00000000        0x0 ..\obj\utilities_new.o
 .bss           0x00000000        0x0 ..\obj\utilities_new.o
 .text.GC_ZSPM_GPIO_Config
                0x00000000       0x44 ..\obj\utilities_new.o
 .text.GPS_Control
                0x00000000       0x7c ..\obj\utilities_new.o
 .text.conf_save
                0x00000000       0xcc ..\obj\utilities_new.o
 .text.load_defaults
                0x00000000      0x1dc ..\obj\utilities_new.o
 .text.save_defaults
                0x00000000      0x1d8 ..\obj\utilities_new.o
 .text          0x00000000        0x0 ..\obj\udp.o
 .data          0x00000000        0x0 ..\obj\udp.o
 .bss           0x00000000        0x0 ..\obj\udp.o
 .text.udp_disconnect
                0x00000000       0x34 ..\obj\udp.o
 .text          0x00000000        0x0 ..\obj\ip.o
 .data          0x00000000        0x0 ..\obj\ip.o
 .text          0x00000000        0x0 ..\obj\stm32f4xx_i2c.o
 .data          0x00000000        0x0 ..\obj\stm32f4xx_i2c.o
 .bss           0x00000000        0x0 ..\obj\stm32f4xx_i2c.o
 .text.I2C_StructInit
                0x00000000       0x3c ..\obj\stm32f4xx_i2c.o
 .text.I2C_Cmd  0x00000000       0x40 ..\obj\stm32f4xx_i2c.o
 .text.I2C_AnalogFilterCmd
                0x00000000       0x40 ..\obj\stm32f4xx_i2c.o
 .text.I2C_DigitalFilterConfig
                0x00000000       0x40 ..\obj\stm32f4xx_i2c.o
 .text.I2C_GenerateSTART
                0x00000000       0x40 ..\obj\stm32f4xx_i2c.o
 .text.I2C_GenerateSTOP
                0x00000000       0x40 ..\obj\stm32f4xx_i2c.o
 .text.I2C_Send7bitAddress
                0x00000000       0x3c ..\obj\stm32f4xx_i2c.o
 .text.I2C_AcknowledgeConfig
                0x00000000       0x40 ..\obj\stm32f4xx_i2c.o
 .text.I2C_OwnAddress2Config
                0x00000000       0x40 ..\obj\stm32f4xx_i2c.o
 .text.I2C_DualAddressCmd
                0x00000000       0x40 ..\obj\stm32f4xx_i2c.o
 .text.I2C_GeneralCallCmd
                0x00000000       0x40 ..\obj\stm32f4xx_i2c.o
 .text.I2C_SoftwareResetCmd
                0x00000000       0x44 ..\obj\stm32f4xx_i2c.o
 .text.I2C_StretchClockCmd
                0x00000000       0x40 ..\obj\stm32f4xx_i2c.o
 .text.I2C_FastModeDutyCycleConfig
                0x00000000       0x40 ..\obj\stm32f4xx_i2c.o
 .text.I2C_NACKPositionConfig
                0x00000000       0x40 ..\obj\stm32f4xx_i2c.o
 .text.I2C_SMBusAlertConfig
                0x00000000       0x40 ..\obj\stm32f4xx_i2c.o
 .text.I2C_ARPCmd
                0x00000000       0x40 ..\obj\stm32f4xx_i2c.o
 .text.I2C_SendData
                0x00000000       0x20 ..\obj\stm32f4xx_i2c.o
 .text.I2C_ReceiveData
                0x00000000       0x1c ..\obj\stm32f4xx_i2c.o
 .text.I2C_TransmitPEC
                0x00000000       0x40 ..\obj\stm32f4xx_i2c.o
 .text.I2C_PECPositionConfig
                0x00000000       0x40 ..\obj\stm32f4xx_i2c.o
 .text.I2C_CalculatePEC
                0x00000000       0x40 ..\obj\stm32f4xx_i2c.o
 .text.I2C_GetPEC
                0x00000000       0x20 ..\obj\stm32f4xx_i2c.o
 .text.I2C_DMACmd
                0x00000000       0x40 ..\obj\stm32f4xx_i2c.o
 .text.I2C_DMALastTransferCmd
                0x00000000       0x40 ..\obj\stm32f4xx_i2c.o
 .text.I2C_ReadRegister
                0x00000000       0x30 ..\obj\stm32f4xx_i2c.o
 .text.I2C_ITConfig
                0x00000000       0x48 ..\obj\stm32f4xx_i2c.o
 .text.I2C_GetLastEvent
                0x00000000       0x44 ..\obj\stm32f4xx_i2c.o
 .text.I2C_GetFlagStatus
                0x00000000       0x68 ..\obj\stm32f4xx_i2c.o
 .text.I2C_ClearFlag
                0x00000000       0x2c ..\obj\stm32f4xx_i2c.o
 .text.I2C_GetITStatus
                0x00000000       0x5c ..\obj\stm32f4xx_i2c.o
 .text.I2C_ClearITPendingBit
                0x00000000       0x2c ..\obj\stm32f4xx_i2c.o
 .text          0x00000000        0x0 ..\obj\stm32f4xx_exti.o
 .data          0x00000000        0x0 ..\obj\stm32f4xx_exti.o
 .bss           0x00000000        0x0 ..\obj\stm32f4xx_exti.o
 .text.EXTI_DeInit
                0x00000000       0x34 ..\obj\stm32f4xx_exti.o
 .text.EXTI_StructInit
                0x00000000       0x2c ..\obj\stm32f4xx_exti.o
 .text.EXTI_GenerateSWInterrupt
                0x00000000       0x24 ..\obj\stm32f4xx_exti.o
 .text.EXTI_GetFlagStatus
                0x00000000       0x34 ..\obj\stm32f4xx_exti.o
 .text.EXTI_ClearFlag
                0x00000000       0x1c ..\obj\stm32f4xx_exti.o
 .text.EXTI_GetITStatus
                0x00000000       0x34 ..\obj\stm32f4xx_exti.o
 .text.EXTI_ClearITPendingBit
                0x00000000       0x1c ..\obj\stm32f4xx_exti.o
 .text          0x00000000        0x0 ..\obj\icmp.o
 .data          0x00000000        0x0 ..\obj\icmp.o
 .bss           0x00000000        0x0 ..\obj\icmp.o
 .text          0x00000000        0x0 ..\obj\dns.o
 .data          0x00000000        0x0 ..\obj\dns.o
 .bss           0x00000000        0x0 ..\obj\dns.o
 .debug_info    0x00000000       0x72 ..\obj\dns.o
 .debug_abbrev  0x00000000       0x26 ..\obj\dns.o
 .debug_aranges
                0x00000000       0x18 ..\obj\dns.o
 .debug_line    0x00000000       0x1d ..\obj\dns.o
 .debug_str     0x00000000      0x1bd ..\obj\dns.o
 .comment       0x00000000       0x71 ..\obj\dns.o
 .ARM.attributes
                0x00000000       0x39 ..\obj\dns.o
 .text          0x00000000        0x0 ..\obj\netifapi.o
 .data          0x00000000        0x0 ..\obj\netifapi.o
 .bss           0x00000000        0x0 ..\obj\netifapi.o
 .debug_info    0x00000000       0x72 ..\obj\netifapi.o
 .debug_abbrev  0x00000000       0x26 ..\obj\netifapi.o
 .debug_aranges
                0x00000000       0x18 ..\obj\netifapi.o
 .debug_line    0x00000000       0x1d ..\obj\netifapi.o
 .debug_str     0x00000000      0x1c1 ..\obj\netifapi.o
 .comment       0x00000000       0x71 ..\obj\netifapi.o
 .ARM.attributes
                0x00000000       0x39 ..\obj\netifapi.o
 .text          0x00000000        0x0 ..\obj\misc.o
 .data          0x00000000        0x0 ..\obj\misc.o
 .bss           0x00000000        0x0 ..\obj\misc.o
 .text.NVIC_PriorityGroupConfig
                0x00000000       0x24 ..\obj\misc.o
 .text.NVIC_SetVectorTable
                0x00000000       0x2c ..\obj\misc.o
 .text.NVIC_SystemLPConfig
                0x00000000       0x40 ..\obj\misc.o
 .text          0x00000000        0x0 ..\obj\api_lib.o
 .data          0x00000000        0x0 ..\obj\api_lib.o
 .bss           0x00000000        0x0 ..\obj\api_lib.o
 .debug_info    0x00000000       0x72 ..\obj\api_lib.o
 .debug_abbrev  0x00000000       0x26 ..\obj\api_lib.o
 .debug_aranges
                0x00000000       0x18 ..\obj\api_lib.o
 .debug_line    0x00000000       0x1d ..\obj\api_lib.o
 .debug_str     0x00000000      0x1c0 ..\obj\api_lib.o
 .comment       0x00000000       0x71 ..\obj\api_lib.o
 .ARM.attributes
                0x00000000       0x39 ..\obj\api_lib.o
 .text          0x00000000        0x0 ..\obj\dhcp.o
 .bss           0x00000000        0x0 ..\obj\dhcp.o
 .text.dhcp_handle_nak
                0x00000000       0x44 ..\obj\dhcp.o
 .text.dhcp_check
                0x00000000       0x5c ..\obj\dhcp.o
 .text.dhcp_handle_offer
                0x00000000       0x5c ..\obj\dhcp.o
 .text.dhcp_select
                0x00000000      0x144 ..\obj\dhcp.o
 .text.dhcp_coarse_tmr
                0x00000000       0x5c ..\obj\dhcp.o
 .text.dhcp_fine_tmr
                0x00000000       0x60 ..\obj\dhcp.o
 .text.dhcp_timeout
                0x00000000       0xc8 ..\obj\dhcp.o
 .text.dhcp_t1_timeout
                0x00000000       0x34 ..\obj\dhcp.o
 .text.dhcp_t2_timeout
                0x00000000       0x34 ..\obj\dhcp.o
 .text.dhcp_handle_ack
                0x00000000      0x1a0 ..\obj\dhcp.o
 .text.dhcp_start
                0x00000000      0x118 ..\obj\dhcp.o
 .text.dhcp_inform
                0x00000000       0xf0 ..\obj\dhcp.o
 .text.dhcp_network_changed
                0x00000000       0x80 ..\obj\dhcp.o
 .text.dhcp_discover
                0x00000000      0x118 ..\obj\dhcp.o
 .text.dhcp_bind
                0x00000000      0x164 ..\obj\dhcp.o
 .text.dhcp_renew
                0x00000000       0xe0 ..\obj\dhcp.o
 .text.dhcp_rebind
                0x00000000       0xe4 ..\obj\dhcp.o
 .text.dhcp_reboot
                0x00000000      0x100 ..\obj\dhcp.o
 .text.dhcp_release
                0x00000000      0x12c ..\obj\dhcp.o
 .text.dhcp_stop
                0x00000000       0x68 ..\obj\dhcp.o
 .text.dhcp_option_short
                0x00000000       0x54 ..\obj\dhcp.o
 .text.dhcp_unfold_reply
                0x00000000       0xc8 ..\obj\dhcp.o
 .text.dhcp_free_reply
                0x00000000       0x44 ..\obj\dhcp.o
 .text.dhcp_recv
                0x00000000      0x16c ..\obj\dhcp.o
 .text.dhcp_get_option_ptr
                0x00000000      0x12c ..\obj\dhcp.o
 .text.dhcp_get_option_byte
                0x00000000       0x18 ..\obj\dhcp.o
 .text.dhcp_get_option_long
                0x00000000       0x54 ..\obj\dhcp.o
 .text          0x00000000        0x0 ..\obj\tm_stm32f4_low_power.o
 .data          0x00000000        0x0 ..\obj\tm_stm32f4_low_power.o
 .bss           0x00000000        0x0 ..\obj\tm_stm32f4_low_power.o
 .text.TM_LOWPOWER_SleepUntilInterrupt
                0x00000000       0x28 ..\obj\tm_stm32f4_low_power.o
 .text.TM_LOWPOWER_SleepUntilEvent
                0x00000000       0x10 ..\obj\tm_stm32f4_low_power.o
 .text.TM_LOWPOWER_StandbyReset
                0x00000000       0x20 ..\obj\tm_stm32f4_low_power.o
 .text.TM_LOWPOWER_StopUntilInterrupt
                0x00000000       0x14 ..\obj\tm_stm32f4_low_power.o
 .text.TM_LOWPOWER_StopUntilEvent
                0x00000000       0x14 ..\obj\tm_stm32f4_low_power.o
 .text.TM_LOWPOWER_EnableWakeUpPin
                0x00000000        0xc ..\obj\tm_stm32f4_low_power.o
 .text.TM_LOWPOWER_DisableWakeUpPin
                0x00000000        0xc ..\obj\tm_stm32f4_low_power.o
 .text          0x00000000        0x0 ..\obj\tm_stm32f4_gpio.o
 .data          0x00000000        0x0 ..\obj\tm_stm32f4_gpio.o
 .text.TM_GPIO_DeInit
                0x00000000       0x80 ..\obj\tm_stm32f4_gpio.o
 .text.TM_GPIO_SetPinAsInput
                0x00000000       0x50 ..\obj\tm_stm32f4_gpio.o
 .text.TM_GPIO_SetPinAsOutput
                0x00000000       0x5c ..\obj\tm_stm32f4_gpio.o
 .text.TM_GPIO_SetPinAsAnalog
                0x00000000       0x4c ..\obj\tm_stm32f4_gpio.o
 .text.TM_GPIO_SetPinAsAlternate
                0x00000000       0x5c ..\obj\tm_stm32f4_gpio.o
 .text.TM_GPIO_SetPullResistor
                0x00000000       0x60 ..\obj\tm_stm32f4_gpio.o
 .text.TM_GPIO_Lock
                0x00000000       0x38 ..\obj\tm_stm32f4_gpio.o
 .text.TM_GPIO_GetPinSource
                0x00000000       0x30 ..\obj\tm_stm32f4_gpio.o
 .text.TM_GPIO_INT_DisableClock
                0x00000000       0x2c ..\obj\tm_stm32f4_gpio.o
 .text.TM_GPIO_GetUsedPins
                0x00000000       0x24 ..\obj\tm_stm32f4_gpio.o
 .text.TM_GPIO_GetFreePins
                0x00000000       0x28 ..\obj\tm_stm32f4_gpio.o
 .text          0x00000000        0x0 ..\obj\stm32f4xx_rtc.o
 .data          0x00000000        0x0 ..\obj\stm32f4xx_rtc.o
 .bss           0x00000000        0x0 ..\obj\stm32f4xx_rtc.o
 .text.RTC_DeInit
                0x00000000       0xf4 ..\obj\stm32f4xx_rtc.o
 .text.RTC_StructInit
                0x00000000       0x24 ..\obj\stm32f4xx_rtc.o
 .text.RTC_WriteProtectionCmd
                0x00000000       0x34 ..\obj\stm32f4xx_rtc.o
 .text.RTC_RefClockCmd
                0x00000000       0x68 ..\obj\stm32f4xx_rtc.o
 .text.RTC_BypassShadowCmd
                0x00000000       0x4c ..\obj\stm32f4xx_rtc.o
 .text.RTC_TimeStructInit
                0x00000000       0x2c ..\obj\stm32f4xx_rtc.o
 .text.RTC_GetSubSecond
                0x00000000       0x28 ..\obj\stm32f4xx_rtc.o
 .text.RTC_DateStructInit
                0x00000000       0x2c ..\obj\stm32f4xx_rtc.o
 .text.RTC_SetAlarm
                0x00000000      0x138 ..\obj\stm32f4xx_rtc.o
 .text.RTC_AlarmStructInit
                0x00000000       0x3c ..\obj\stm32f4xx_rtc.o
 .text.RTC_GetAlarm
                0x00000000       0xd8 ..\obj\stm32f4xx_rtc.o
 .text.RTC_AlarmCmd
                0x00000000       0x9c ..\obj\stm32f4xx_rtc.o
 .text.RTC_AlarmSubSecondConfig
                0x00000000       0x50 ..\obj\stm32f4xx_rtc.o
 .text.RTC_GetAlarmSubSecond
                0x00000000       0x3c ..\obj\stm32f4xx_rtc.o
 .text.RTC_GetWakeUpCounter
                0x00000000       0x18 ..\obj\stm32f4xx_rtc.o
 .text.RTC_DayLightSavingConfig
                0x00000000       0x48 ..\obj\stm32f4xx_rtc.o
 .text.RTC_GetStoreOperation
                0x00000000       0x1c ..\obj\stm32f4xx_rtc.o
 .text.RTC_OutputConfig
                0x00000000       0x48 ..\obj\stm32f4xx_rtc.o
 .text.RTC_CoarseCalibConfig
                0x00000000       0x50 ..\obj\stm32f4xx_rtc.o
 .text.RTC_CoarseCalibCmd
                0x00000000       0x68 ..\obj\stm32f4xx_rtc.o
 .text.RTC_CalibOutputCmd
                0x00000000       0x4c ..\obj\stm32f4xx_rtc.o
 .text.RTC_CalibOutputConfig
                0x00000000       0x40 ..\obj\stm32f4xx_rtc.o
 .text.RTC_SmoothCalibConfig
                0x00000000       0x84 ..\obj\stm32f4xx_rtc.o
 .text.RTC_TimeStampCmd
                0x00000000       0x60 ..\obj\stm32f4xx_rtc.o
 .text.RTC_GetTimeStamp
                0x00000000      0x114 ..\obj\stm32f4xx_rtc.o
 .text.RTC_GetTimeStampSubSecond
                0x00000000       0x18 ..\obj\stm32f4xx_rtc.o
 .text.RTC_TamperTriggerConfig
                0x00000000       0x40 ..\obj\stm32f4xx_rtc.o
 .text.RTC_TamperCmd
                0x00000000       0x3c ..\obj\stm32f4xx_rtc.o
 .text.RTC_TamperFilterConfig
                0x00000000       0x30 ..\obj\stm32f4xx_rtc.o
 .text.RTC_TamperSamplingFreqConfig
                0x00000000       0x30 ..\obj\stm32f4xx_rtc.o
 .text.RTC_TamperPinsPrechargeDuration
                0x00000000       0x30 ..\obj\stm32f4xx_rtc.o
 .text.RTC_TimeStampOnTamperDetectionCmd
                0x00000000       0x38 ..\obj\stm32f4xx_rtc.o
 .text.RTC_TamperPullUpCmd
                0x00000000       0x38 ..\obj\stm32f4xx_rtc.o
 .text.RTC_TamperPinSelection
                0x00000000       0x30 ..\obj\stm32f4xx_rtc.o
 .text.RTC_TimeStampPinSelection
                0x00000000       0x30 ..\obj\stm32f4xx_rtc.o
 .text.RTC_OutputTypeConfig
                0x00000000       0x30 ..\obj\stm32f4xx_rtc.o
 .text.RTC_SynchroShiftConfig
                0x00000000       0x9c ..\obj\stm32f4xx_rtc.o
 .text.RTC_GetFlagStatus
                0x00000000       0x44 ..\obj\stm32f4xx_rtc.o
 .text.RTC_ClearFlag
                0x00000000       0x30 ..\obj\stm32f4xx_rtc.o
 .text          0x00000000        0x0 ..\obj\tm_stm32f4_timer_properties.o
 .data          0x00000000        0x0 ..\obj\tm_stm32f4_timer_properties.o
 .bss           0x00000000        0x0 ..\obj\tm_stm32f4_timer_properties.o
 .text.TM_TIMER_PROPERTIES_DisableClock
                0x00000000      0x168 ..\obj\tm_stm32f4_timer_properties.o
 .text          0x00000000        0x0 ..\obj\stm32f4xx_tim.o
 .data          0x00000000        0x0 ..\obj\stm32f4xx_tim.o
 .bss           0x00000000        0x0 ..\obj\stm32f4xx_tim.o
 .text.TIM_DeInit
                0x00000000      0x1bc ..\obj\stm32f4xx_tim.o
 .text.TIM_TimeBaseStructInit
                0x00000000       0x34 ..\obj\stm32f4xx_tim.o
 .text.TIM_PrescalerConfig
                0x00000000       0x28 ..\obj\stm32f4xx_tim.o
 .text.TIM_CounterModeConfig
                0x00000000       0x38 ..\obj\stm32f4xx_tim.o
 .text.TIM_SetCounter
                0x00000000       0x1c ..\obj\stm32f4xx_tim.o
 .text.TIM_SetAutoreload
                0x00000000       0x1c ..\obj\stm32f4xx_tim.o
 .text.TIM_GetCounter
                0x00000000       0x18 ..\obj\stm32f4xx_tim.o
 .text.TIM_GetPrescaler
                0x00000000       0x1c ..\obj\stm32f4xx_tim.o
 .text.TIM_UpdateDisableConfig
                0x00000000       0x40 ..\obj\stm32f4xx_tim.o
 .text.TIM_UpdateRequestConfig
                0x00000000       0x40 ..\obj\stm32f4xx_tim.o
 .text.TIM_ARRPreloadConfig
                0x00000000       0x40 ..\obj\stm32f4xx_tim.o
 .text.TIM_SelectOnePulseMode
                0x00000000       0x38 ..\obj\stm32f4xx_tim.o
 .text.TIM_SetClockDivision
                0x00000000       0x38 ..\obj\stm32f4xx_tim.o
 .text.TIM_Cmd  0x00000000       0x40 ..\obj\stm32f4xx_tim.o
 .text.TIM_OC1Init
                0x00000000       0xf4 ..\obj\stm32f4xx_tim.o
 .text.TIM_OC2Init
                0x00000000      0x110 ..\obj\stm32f4xx_tim.o
 .text.TIM_OC3Init
                0x00000000      0x10c ..\obj\stm32f4xx_tim.o
 .text.TIM_OC4Init
                0x00000000       0xcc ..\obj\stm32f4xx_tim.o
 .text.TIM_OCStructInit
                0x00000000       0x44 ..\obj\stm32f4xx_tim.o
 .text.TIM_SelectOCxM
                0x00000000       0xb0 ..\obj\stm32f4xx_tim.o
 .text.TIM_SetCompare1
                0x00000000       0x1c ..\obj\stm32f4xx_tim.o
 .text.TIM_SetCompare2
                0x00000000       0x1c ..\obj\stm32f4xx_tim.o
 .text.TIM_SetCompare3
                0x00000000       0x1c ..\obj\stm32f4xx_tim.o
 .text.TIM_SetCompare4
                0x00000000       0x1c ..\obj\stm32f4xx_tim.o
 .text.TIM_ForcedOC1Config
                0x00000000       0x38 ..\obj\stm32f4xx_tim.o
 .text.TIM_ForcedOC2Config
                0x00000000       0x3c ..\obj\stm32f4xx_tim.o
 .text.TIM_ForcedOC3Config
                0x00000000       0x38 ..\obj\stm32f4xx_tim.o
 .text.TIM_ForcedOC4Config
                0x00000000       0x3c ..\obj\stm32f4xx_tim.o
 .text.TIM_OC1PreloadConfig
                0x00000000       0x38 ..\obj\stm32f4xx_tim.o
 .text.TIM_OC2PreloadConfig
                0x00000000       0x3c ..\obj\stm32f4xx_tim.o
 .text.TIM_OC3PreloadConfig
                0x00000000       0x38 ..\obj\stm32f4xx_tim.o
 .text.TIM_OC4PreloadConfig
                0x00000000       0x3c ..\obj\stm32f4xx_tim.o
 .text.TIM_OC1FastConfig
                0x00000000       0x38 ..\obj\stm32f4xx_tim.o
 .text.TIM_OC2FastConfig
                0x00000000       0x3c ..\obj\stm32f4xx_tim.o
 .text.TIM_OC3FastConfig
                0x00000000       0x38 ..\obj\stm32f4xx_tim.o
 .text.TIM_OC4FastConfig
                0x00000000       0x3c ..\obj\stm32f4xx_tim.o
 .text.TIM_ClearOC1Ref
                0x00000000       0x38 ..\obj\stm32f4xx_tim.o
 .text.TIM_ClearOC2Ref
                0x00000000       0x3c ..\obj\stm32f4xx_tim.o
 .text.TIM_ClearOC3Ref
                0x00000000       0x38 ..\obj\stm32f4xx_tim.o
 .text.TIM_ClearOC4Ref
                0x00000000       0x3c ..\obj\stm32f4xx_tim.o
 .text.TIM_OC1PolarityConfig
                0x00000000       0x38 ..\obj\stm32f4xx_tim.o
 .text.TIM_OC1NPolarityConfig
                0x00000000       0x38 ..\obj\stm32f4xx_tim.o
 .text.TIM_OC2PolarityConfig
                0x00000000       0x3c ..\obj\stm32f4xx_tim.o
 .text.TIM_OC2NPolarityConfig
                0x00000000       0x3c ..\obj\stm32f4xx_tim.o
 .text.TIM_OC3PolarityConfig
                0x00000000       0x3c ..\obj\stm32f4xx_tim.o
 .text.TIM_OC3NPolarityConfig
                0x00000000       0x3c ..\obj\stm32f4xx_tim.o
 .text.TIM_OC4PolarityConfig
                0x00000000       0x3c ..\obj\stm32f4xx_tim.o
 .text.TIM_CCxCmd
                0x00000000       0x54 ..\obj\stm32f4xx_tim.o
 .text.TIM_CCxNCmd
                0x00000000       0x54 ..\obj\stm32f4xx_tim.o
 .text.TIM_ICInit
                0x00000000       0xa8 ..\obj\stm32f4xx_tim.o
 .text.TIM_ICStructInit
                0x00000000       0x30 ..\obj\stm32f4xx_tim.o
 .text.TIM_PWMIConfig
                0x00000000       0xb8 ..\obj\stm32f4xx_tim.o
 .text.TIM_GetCapture1
                0x00000000       0x18 ..\obj\stm32f4xx_tim.o
 .text.TIM_GetCapture2
                0x00000000       0x18 ..\obj\stm32f4xx_tim.o
 .text.TIM_GetCapture3
                0x00000000       0x18 ..\obj\stm32f4xx_tim.o
 .text.TIM_GetCapture4
                0x00000000       0x18 ..\obj\stm32f4xx_tim.o
 .text.TIM_SetIC1Prescaler
                0x00000000       0x38 ..\obj\stm32f4xx_tim.o
 .text.TIM_SetIC2Prescaler
                0x00000000       0x3c ..\obj\stm32f4xx_tim.o
 .text.TIM_SetIC3Prescaler
                0x00000000       0x38 ..\obj\stm32f4xx_tim.o
 .text.TIM_SetIC4Prescaler
                0x00000000       0x3c ..\obj\stm32f4xx_tim.o
 .text.TIM_BDTRConfig
                0x00000000       0x50 ..\obj\stm32f4xx_tim.o
 .text.TIM_BDTRStructInit
                0x00000000       0x3c ..\obj\stm32f4xx_tim.o
 .text.TIM_CtrlPWMOutputs
                0x00000000       0x4c ..\obj\stm32f4xx_tim.o
 .text.TIM_SelectCOM
                0x00000000       0x40 ..\obj\stm32f4xx_tim.o
 .text.TIM_CCPreloadControl
                0x00000000       0x40 ..\obj\stm32f4xx_tim.o
 .text.TIM_ITConfig
                0x00000000       0x48 ..\obj\stm32f4xx_tim.o
 .text.TIM_GenerateEvent
                0x00000000       0x1c ..\obj\stm32f4xx_tim.o
 .text.TIM_GetFlagStatus
                0x00000000       0x38 ..\obj\stm32f4xx_tim.o
 .text.TIM_ClearFlag
                0x00000000       0x20 ..\obj\stm32f4xx_tim.o
 .text.TIM_GetITStatus
                0x00000000       0x54 ..\obj\stm32f4xx_tim.o
 .text.TIM_ClearITPendingBit
                0x00000000       0x20 ..\obj\stm32f4xx_tim.o
 .text.TIM_DMAConfig
                0x00000000       0x28 ..\obj\stm32f4xx_tim.o
 .text.TIM_DMACmd
                0x00000000       0x48 ..\obj\stm32f4xx_tim.o
 .text.TIM_SelectCCDMA
                0x00000000       0x40 ..\obj\stm32f4xx_tim.o
 .text.TIM_InternalClockConfig
                0x00000000       0x24 ..\obj\stm32f4xx_tim.o
 .text.TIM_ITRxExternalClockConfig
                0x00000000       0x2c ..\obj\stm32f4xx_tim.o
 .text.TIM_TIxExternalClockConfig
                0x00000000       0x60 ..\obj\stm32f4xx_tim.o
 .text.TIM_ETRClockMode1Config
                0x00000000       0x5c ..\obj\stm32f4xx_tim.o
 .text.TIM_ETRClockMode2Config
                0x00000000       0x3c ..\obj\stm32f4xx_tim.o
 .text.TIM_SelectInputTrigger
                0x00000000       0x38 ..\obj\stm32f4xx_tim.o
 .text.TIM_SelectOutputTrigger
                0x00000000       0x38 ..\obj\stm32f4xx_tim.o
 .text.TIM_SelectSlaveMode
                0x00000000       0x38 ..\obj\stm32f4xx_tim.o
 .text.TIM_SelectMasterSlaveMode
                0x00000000       0x38 ..\obj\stm32f4xx_tim.o
 .text.TIM_ETRConfig
                0x00000000       0x54 ..\obj\stm32f4xx_tim.o
 .text.TIM_EncoderInterfaceConfig
                0x00000000       0x98 ..\obj\stm32f4xx_tim.o
 .text.TIM_SelectHallSensor
                0x00000000       0x40 ..\obj\stm32f4xx_tim.o
 .text.TIM_RemapConfig
                0x00000000       0x20 ..\obj\stm32f4xx_tim.o
 .text.TI1_Config
                0x00000000       0x84 ..\obj\stm32f4xx_tim.o
 .text.TI2_Config
                0x00000000       0x98 ..\obj\stm32f4xx_tim.o
 .text.TI3_Config
                0x00000000       0x90 ..\obj\stm32f4xx_tim.o
 .text.TI4_Config
                0x00000000       0x9c ..\obj\stm32f4xx_tim.o
 .text          0x00000000        0x0 ..\obj\tcp_out.o
 .data          0x00000000        0x0 ..\obj\tcp_out.o
 .bss           0x00000000        0x0 ..\obj\tcp_out.o
 .text.tcp_write
                0x00000000       0x64 ..\obj\tcp_out.o
 .text.tcp_rexmit_rto
                0x00000000       0x60 ..\obj\tcp_out.o
 .text.tcp_keepalive
                0x00000000       0x5c ..\obj\tcp_out.o
 .text.tcp_zero_window_probe
                0x00000000       0xe0 ..\obj\tcp_out.o
 .text          0x00000000        0x0 ..\obj\loopif.o
 .data          0x00000000        0x0 ..\obj\loopif.o
 .bss           0x00000000        0x0 ..\obj\loopif.o
 .debug_info    0x00000000       0x72 ..\obj\loopif.o
 .debug_abbrev  0x00000000       0x26 ..\obj\loopif.o
 .debug_aranges
                0x00000000       0x18 ..\obj\loopif.o
 .debug_line    0x00000000       0x1d ..\obj\loopif.o
 .debug_str     0x00000000      0x1c1 ..\obj\loopif.o
 .comment       0x00000000       0x71 ..\obj\loopif.o
 .ARM.attributes
                0x00000000       0x39 ..\obj\loopif.o
 .text          0x00000000        0x0 ..\obj\raw.o
 .data          0x00000000        0x0 ..\obj\raw.o
 .text.raw_bind
                0x00000000       0x2c ..\obj\raw.o
 .text.raw_connect
                0x00000000       0x2c ..\obj\raw.o
 .text.raw_recv
                0x00000000       0x24 ..\obj\raw.o
 .text.raw_sendto
                0x00000000       0xcc ..\obj\raw.o
 .text.raw_send
                0x00000000       0x24 ..\obj\raw.o
 .text.raw_remove
                0x00000000       0x60 ..\obj\raw.o
 .text.raw_new  0x00000000       0x4c ..\obj\raw.o
 .text          0x00000000        0x0 c:/gcc_arm/49/bin/../lib/gcc/arm-none-eabi/4.9.3/../../../../arm-none-eabi/lib/armv7e-m/fpu\libm.a(lib_a-s_ceil.o)
 .data          0x00000000        0x0 c:/gcc_arm/49/bin/../lib/gcc/arm-none-eabi/4.9.3/../../../../arm-none-eabi/lib/armv7e-m/fpu\libm.a(lib_a-s_ceil.o)
 .bss           0x00000000        0x0 c:/gcc_arm/49/bin/../lib/gcc/arm-none-eabi/4.9.3/../../../../arm-none-eabi/lib/armv7e-m/fpu\libm.a(lib_a-s_ceil.o)
 .text          0x00000000        0x0 c:/gcc_arm/49/bin/../lib/gcc/arm-none-eabi/4.9.3/../../../../arm-none-eabi/lib/armv7e-m/fpu\libm.a(lib_a-s_cos.o)
 .data          0x00000000        0x0 c:/gcc_arm/49/bin/../lib/gcc/arm-none-eabi/4.9.3/../../../../arm-none-eabi/lib/armv7e-m/fpu\libm.a(lib_a-s_cos.o)
 .bss           0x00000000        0x0 c:/gcc_arm/49/bin/../lib/gcc/arm-none-eabi/4.9.3/../../../../arm-none-eabi/lib/armv7e-m/fpu\libm.a(lib_a-s_cos.o)
 .text.cos      0x00000000       0xa8 c:/gcc_arm/49/bin/../lib/gcc/arm-none-eabi/4.9.3/../../../../arm-none-eabi/lib/armv7e-m/fpu\libm.a(lib_a-s_cos.o)
 .debug_frame   0x00000000       0x3c c:/gcc_arm/49/bin/../lib/gcc/arm-none-eabi/4.9.3/../../../../arm-none-eabi/lib/armv7e-m/fpu\libm.a(lib_a-s_cos.o)
 .ARM.attributes
                0x00000000       0x34 c:/gcc_arm/49/bin/../lib/gcc/arm-none-eabi/4.9.3/../../../../arm-none-eabi/lib/armv7e-m/fpu\libm.a(lib_a-s_cos.o)
 .text          0x00000000        0x0 c:/gcc_arm/49/bin/../lib/gcc/arm-none-eabi/4.9.3/../../../../arm-none-eabi/lib/armv7e-m/fpu\libm.a(lib_a-s_sin.o)
 .data          0x00000000        0x0 c:/gcc_arm/49/bin/../lib/gcc/arm-none-eabi/4.9.3/../../../../arm-none-eabi/lib/armv7e-m/fpu\libm.a(lib_a-s_sin.o)
 .bss           0x00000000        0x0 c:/gcc_arm/49/bin/../lib/gcc/arm-none-eabi/4.9.3/../../../../arm-none-eabi/lib/armv7e-m/fpu\libm.a(lib_a-s_sin.o)
 .text.sin      0x00000000       0xa8 c:/gcc_arm/49/bin/../lib/gcc/arm-none-eabi/4.9.3/../../../../arm-none-eabi/lib/armv7e-m/fpu\libm.a(lib_a-s_sin.o)
 .debug_frame   0x00000000       0x3c c:/gcc_arm/49/bin/../lib/gcc/arm-none-eabi/4.9.3/../../../../arm-none-eabi/lib/armv7e-m/fpu\libm.a(lib_a-s_sin.o)
 .ARM.attributes
                0x00000000       0x34 c:/gcc_arm/49/bin/../lib/gcc/arm-none-eabi/4.9.3/../../../../arm-none-eabi/lib/armv7e-m/fpu\libm.a(lib_a-s_sin.o)
 .text          0x00000000        0x0 c:/gcc_arm/49/bin/../lib/gcc/arm-none-eabi/4.9.3/../../../../arm-none-eabi/lib/armv7e-m/fpu\libm.a(lib_a-w_atan2.o)
 .data          0x00000000        0x0 c:/gcc_arm/49/bin/../lib/gcc/arm-none-eabi/4.9.3/../../../../arm-none-eabi/lib/armv7e-m/fpu\libm.a(lib_a-w_atan2.o)
 .bss           0x00000000        0x0 c:/gcc_arm/49/bin/../lib/gcc/arm-none-eabi/4.9.3/../../../../arm-none-eabi/lib/armv7e-m/fpu\libm.a(lib_a-w_atan2.o)
 .text.atan2    0x00000000        0x4 c:/gcc_arm/49/bin/../lib/gcc/arm-none-eabi/4.9.3/../../../../arm-none-eabi/lib/armv7e-m/fpu\libm.a(lib_a-w_atan2.o)
 .debug_frame   0x00000000       0x20 c:/gcc_arm/49/bin/../lib/gcc/arm-none-eabi/4.9.3/../../../../arm-none-eabi/lib/armv7e-m/fpu\libm.a(lib_a-w_atan2.o)
 .ARM.attributes
                0x00000000       0x34 c:/gcc_arm/49/bin/../lib/gcc/arm-none-eabi/4.9.3/../../../../arm-none-eabi/lib/armv7e-m/fpu\libm.a(lib_a-w_atan2.o)
 .text          0x00000000        0x0 c:/gcc_arm/49/bin/../lib/gcc/arm-none-eabi/4.9.3/../../../../arm-none-eabi/lib/armv7e-m/fpu\libm.a(lib_a-w_pow.o)
 .data          0x00000000        0x0 c:/gcc_arm/49/bin/../lib/gcc/arm-none-eabi/4.9.3/../../../../arm-none-eabi/lib/armv7e-m/fpu\libm.a(lib_a-w_pow.o)
 .bss           0x00000000        0x0 c:/gcc_arm/49/bin/../lib/gcc/arm-none-eabi/4.9.3/../../../../arm-none-eabi/lib/armv7e-m/fpu\libm.a(lib_a-w_pow.o)
 .text          0x00000000        0x0 c:/gcc_arm/49/bin/../lib/gcc/arm-none-eabi/4.9.3/../../../../arm-none-eabi/lib/armv7e-m/fpu\libm.a(lib_a-w_sqrt.o)
 .data          0x00000000        0x0 c:/gcc_arm/49/bin/../lib/gcc/arm-none-eabi/4.9.3/../../../../arm-none-eabi/lib/armv7e-m/fpu\libm.a(lib_a-w_sqrt.o)
 .bss           0x00000000        0x0 c:/gcc_arm/49/bin/../lib/gcc/arm-none-eabi/4.9.3/../../../../arm-none-eabi/lib/armv7e-m/fpu\libm.a(lib_a-w_sqrt.o)
 .text.sqrt     0x00000000       0xbc c:/gcc_arm/49/bin/../lib/gcc/arm-none-eabi/4.9.3/../../../../arm-none-eabi/lib/armv7e-m/fpu\libm.a(lib_a-w_sqrt.o)
 .rodata.str1.4
                0x00000000        0x5 c:/gcc_arm/49/bin/../lib/gcc/arm-none-eabi/4.9.3/../../../../arm-none-eabi/lib/armv7e-m/fpu\libm.a(lib_a-w_sqrt.o)
 .debug_frame   0x00000000       0x60 c:/gcc_arm/49/bin/../lib/gcc/arm-none-eabi/4.9.3/../../../../arm-none-eabi/lib/armv7e-m/fpu\libm.a(lib_a-w_sqrt.o)
 .ARM.attributes
                0x00000000       0x34 c:/gcc_arm/49/bin/../lib/gcc/arm-none-eabi/4.9.3/../../../../arm-none-eabi/lib/armv7e-m/fpu\libm.a(lib_a-w_sqrt.o)
 .text          0x00000000        0x0 c:/gcc_arm/49/bin/../lib/gcc/arm-none-eabi/4.9.3/../../../../arm-none-eabi/lib/armv7e-m/fpu\libm.a(lib_a-wf_log10.o)
 .data          0x00000000        0x0 c:/gcc_arm/49/bin/../lib/gcc/arm-none-eabi/4.9.3/../../../../arm-none-eabi/lib/armv7e-m/fpu\libm.a(lib_a-wf_log10.o)
 .bss           0x00000000        0x0 c:/gcc_arm/49/bin/../lib/gcc/arm-none-eabi/4.9.3/../../../../arm-none-eabi/lib/armv7e-m/fpu\libm.a(lib_a-wf_log10.o)
 .text          0x00000000        0x0 c:/gcc_arm/49/bin/../lib/gcc/arm-none-eabi/4.9.3/../../../../arm-none-eabi/lib/armv7e-m/fpu\libm.a(lib_a-e_atan2.o)
 .data          0x00000000        0x0 c:/gcc_arm/49/bin/../lib/gcc/arm-none-eabi/4.9.3/../../../../arm-none-eabi/lib/armv7e-m/fpu\libm.a(lib_a-e_atan2.o)
 .bss           0x00000000        0x0 c:/gcc_arm/49/bin/../lib/gcc/arm-none-eabi/4.9.3/../../../../arm-none-eabi/lib/armv7e-m/fpu\libm.a(lib_a-e_atan2.o)
 .text.__ieee754_atan2
                0x00000000      0x224 c:/gcc_arm/49/bin/../lib/gcc/arm-none-eabi/4.9.3/../../../../arm-none-eabi/lib/armv7e-m/fpu\libm.a(lib_a-e_atan2.o)
 .debug_frame   0x00000000       0x44 c:/gcc_arm/49/bin/../lib/gcc/arm-none-eabi/4.9.3/../../../../arm-none-eabi/lib/armv7e-m/fpu\libm.a(lib_a-e_atan2.o)
 .ARM.attributes
                0x00000000       0x34 c:/gcc_arm/49/bin/../lib/gcc/arm-none-eabi/4.9.3/../../../../arm-none-eabi/lib/armv7e-m/fpu\libm.a(lib_a-e_atan2.o)
 .text          0x00000000        0x0 c:/gcc_arm/49/bin/../lib/gcc/arm-none-eabi/4.9.3/../../../../arm-none-eabi/lib/armv7e-m/fpu\libm.a(lib_a-e_pow.o)
 .data          0x00000000        0x0 c:/gcc_arm/49/bin/../lib/gcc/arm-none-eabi/4.9.3/../../../../arm-none-eabi/lib/armv7e-m/fpu\libm.a(lib_a-e_pow.o)
 .bss           0x00000000        0x0 c:/gcc_arm/49/bin/../lib/gcc/arm-none-eabi/4.9.3/../../../../arm-none-eabi/lib/armv7e-m/fpu\libm.a(lib_a-e_pow.o)
 .text          0x00000000        0x0 c:/gcc_arm/49/bin/../lib/gcc/arm-none-eabi/4.9.3/../../../../arm-none-eabi/lib/armv7e-m/fpu\libm.a(lib_a-e_rem_pio2.o)
 .data          0x00000000        0x0 c:/gcc_arm/49/bin/../lib/gcc/arm-none-eabi/4.9.3/../../../../arm-none-eabi/lib/armv7e-m/fpu\libm.a(lib_a-e_rem_pio2.o)
 .bss           0x00000000        0x0 c:/gcc_arm/49/bin/../lib/gcc/arm-none-eabi/4.9.3/../../../../arm-none-eabi/lib/armv7e-m/fpu\libm.a(lib_a-e_rem_pio2.o)
 .text.__ieee754_rem_pio2
                0x00000000      0x44c c:/gcc_arm/49/bin/../lib/gcc/arm-none-eabi/4.9.3/../../../../arm-none-eabi/lib/armv7e-m/fpu\libm.a(lib_a-e_rem_pio2.o)
 .rodata.npio2_hw
                0x00000000       0x80 c:/gcc_arm/49/bin/../lib/gcc/arm-none-eabi/4.9.3/../../../../arm-none-eabi/lib/armv7e-m/fpu\libm.a(lib_a-e_rem_pio2.o)
 .rodata.two_over_pi
                0x00000000      0x108 c:/gcc_arm/49/bin/../lib/gcc/arm-none-eabi/4.9.3/../../../../arm-none-eabi/lib/armv7e-m/fpu\libm.a(lib_a-e_rem_pio2.o)
 .debug_frame   0x00000000       0x48 c:/gcc_arm/49/bin/../lib/gcc/arm-none-eabi/4.9.3/../../../../arm-none-eabi/lib/armv7e-m/fpu\libm.a(lib_a-e_rem_pio2.o)
 .ARM.attributes
                0x00000000       0x34 c:/gcc_arm/49/bin/../lib/gcc/arm-none-eabi/4.9.3/../../../../arm-none-eabi/lib/armv7e-m/fpu\libm.a(lib_a-e_rem_pio2.o)
 .text          0x00000000        0x0 c:/gcc_arm/49/bin/../lib/gcc/arm-none-eabi/4.9.3/../../../../arm-none-eabi/lib/armv7e-m/fpu\libm.a(lib_a-e_sqrt.o)
 .data          0x00000000        0x0 c:/gcc_arm/49/bin/../lib/gcc/arm-none-eabi/4.9.3/../../../../arm-none-eabi/lib/armv7e-m/fpu\libm.a(lib_a-e_sqrt.o)
 .bss           0x00000000        0x0 c:/gcc_arm/49/bin/../lib/gcc/arm-none-eabi/4.9.3/../../../../arm-none-eabi/lib/armv7e-m/fpu\libm.a(lib_a-e_sqrt.o)
 .text          0x00000000        0x0 c:/gcc_arm/49/bin/../lib/gcc/arm-none-eabi/4.9.3/../../../../arm-none-eabi/lib/armv7e-m/fpu\libm.a(lib_a-ef_log10.o)
 .data          0x00000000        0x0 c:/gcc_arm/49/bin/../lib/gcc/arm-none-eabi/4.9.3/../../../../arm-none-eabi/lib/armv7e-m/fpu\libm.a(lib_a-ef_log10.o)
 .bss           0x00000000        0x0 c:/gcc_arm/49/bin/../lib/gcc/arm-none-eabi/4.9.3/../../../../arm-none-eabi/lib/armv7e-m/fpu\libm.a(lib_a-ef_log10.o)
 .text          0x00000000        0x0 c:/gcc_arm/49/bin/../lib/gcc/arm-none-eabi/4.9.3/../../../../arm-none-eabi/lib/armv7e-m/fpu\libm.a(lib_a-k_cos.o)
 .data          0x00000000        0x0 c:/gcc_arm/49/bin/../lib/gcc/arm-none-eabi/4.9.3/../../../../arm-none-eabi/lib/armv7e-m/fpu\libm.a(lib_a-k_cos.o)
 .bss           0x00000000        0x0 c:/gcc_arm/49/bin/../lib/gcc/arm-none-eabi/4.9.3/../../../../arm-none-eabi/lib/armv7e-m/fpu\libm.a(lib_a-k_cos.o)
 .text.__kernel_cos
                0x00000000      0x27c c:/gcc_arm/49/bin/../lib/gcc/arm-none-eabi/4.9.3/../../../../arm-none-eabi/lib/armv7e-m/fpu\libm.a(lib_a-k_cos.o)
 .debug_frame   0x00000000       0x68 c:/gcc_arm/49/bin/../lib/gcc/arm-none-eabi/4.9.3/../../../../arm-none-eabi/lib/armv7e-m/fpu\libm.a(lib_a-k_cos.o)
 .ARM.attributes
                0x00000000       0x34 c:/gcc_arm/49/bin/../lib/gcc/arm-none-eabi/4.9.3/../../../../arm-none-eabi/lib/armv7e-m/fpu\libm.a(lib_a-k_cos.o)
 .text          0x00000000        0x0 c:/gcc_arm/49/bin/../lib/gcc/arm-none-eabi/4.9.3/../../../../arm-none-eabi/lib/armv7e-m/fpu\libm.a(lib_a-k_rem_pio2.o)
 .data          0x00000000        0x0 c:/gcc_arm/49/bin/../lib/gcc/arm-none-eabi/4.9.3/../../../../arm-none-eabi/lib/armv7e-m/fpu\libm.a(lib_a-k_rem_pio2.o)
 .bss           0x00000000        0x0 c:/gcc_arm/49/bin/../lib/gcc/arm-none-eabi/4.9.3/../../../../arm-none-eabi/lib/armv7e-m/fpu\libm.a(lib_a-k_rem_pio2.o)
 .text.__kernel_rem_pio2
                0x00000000      0x7f4 c:/gcc_arm/49/bin/../lib/gcc/arm-none-eabi/4.9.3/../../../../arm-none-eabi/lib/armv7e-m/fpu\libm.a(lib_a-k_rem_pio2.o)
 .rodata.init_jk
                0x00000000       0x10 c:/gcc_arm/49/bin/../lib/gcc/arm-none-eabi/4.9.3/../../../../arm-none-eabi/lib/armv7e-m/fpu\libm.a(lib_a-k_rem_pio2.o)
 .rodata.PIo2   0x00000000       0x40 c:/gcc_arm/49/bin/../lib/gcc/arm-none-eabi/4.9.3/../../../../arm-none-eabi/lib/armv7e-m/fpu\libm.a(lib_a-k_rem_pio2.o)
 .debug_frame   0x00000000       0x54 c:/gcc_arm/49/bin/../lib/gcc/arm-none-eabi/4.9.3/../../../../arm-none-eabi/lib/armv7e-m/fpu\libm.a(lib_a-k_rem_pio2.o)
 .ARM.attributes
                0x00000000       0x34 c:/gcc_arm/49/bin/../lib/gcc/arm-none-eabi/4.9.3/../../../../arm-none-eabi/lib/armv7e-m/fpu\libm.a(lib_a-k_rem_pio2.o)
 .text          0x00000000        0x0 c:/gcc_arm/49/bin/../lib/gcc/arm-none-eabi/4.9.3/../../../../arm-none-eabi/lib/armv7e-m/fpu\libm.a(lib_a-k_sin.o)
 .data          0x00000000        0x0 c:/gcc_arm/49/bin/../lib/gcc/arm-none-eabi/4.9.3/../../../../arm-none-eabi/lib/armv7e-m/fpu\libm.a(lib_a-k_sin.o)
 .bss           0x00000000        0x0 c:/gcc_arm/49/bin/../lib/gcc/arm-none-eabi/4.9.3/../../../../arm-none-eabi/lib/armv7e-m/fpu\libm.a(lib_a-k_sin.o)
 .text.__kernel_sin
                0x00000000      0x18c c:/gcc_arm/49/bin/../lib/gcc/arm-none-eabi/4.9.3/../../../../arm-none-eabi/lib/armv7e-m/fpu\libm.a(lib_a-k_sin.o)
 .debug_frame   0x00000000       0x68 c:/gcc_arm/49/bin/../lib/gcc/arm-none-eabi/4.9.3/../../../../arm-none-eabi/lib/armv7e-m/fpu\libm.a(lib_a-k_sin.o)
 .ARM.attributes
                0x00000000       0x34 c:/gcc_arm/49/bin/../lib/gcc/arm-none-eabi/4.9.3/../../../../arm-none-eabi/lib/armv7e-m/fpu\libm.a(lib_a-k_sin.o)
 .text          0x00000000        0x0 c:/gcc_arm/49/bin/../lib/gcc/arm-none-eabi/4.9.3/../../../../arm-none-eabi/lib/armv7e-m/fpu\libm.a(lib_a-s_atan.o)
 .data          0x00000000        0x0 c:/gcc_arm/49/bin/../lib/gcc/arm-none-eabi/4.9.3/../../../../arm-none-eabi/lib/armv7e-m/fpu\libm.a(lib_a-s_atan.o)
 .bss           0x00000000        0x0 c:/gcc_arm/49/bin/../lib/gcc/arm-none-eabi/4.9.3/../../../../arm-none-eabi/lib/armv7e-m/fpu\libm.a(lib_a-s_atan.o)
 .text.atan     0x00000000      0x368 c:/gcc_arm/49/bin/../lib/gcc/arm-none-eabi/4.9.3/../../../../arm-none-eabi/lib/armv7e-m/fpu\libm.a(lib_a-s_atan.o)
 .rodata.atanlo
                0x00000000       0x20 c:/gcc_arm/49/bin/../lib/gcc/arm-none-eabi/4.9.3/../../../../arm-none-eabi/lib/armv7e-m/fpu\libm.a(lib_a-s_atan.o)
 .rodata.atanhi
                0x00000000       0x20 c:/gcc_arm/49/bin/../lib/gcc/arm-none-eabi/4.9.3/../../../../arm-none-eabi/lib/armv7e-m/fpu\libm.a(lib_a-s_atan.o)
 .debug_frame   0x00000000       0x38 c:/gcc_arm/49/bin/../lib/gcc/arm-none-eabi/4.9.3/../../../../arm-none-eabi/lib/armv7e-m/fpu\libm.a(lib_a-s_atan.o)
 .ARM.attributes
                0x00000000       0x34 c:/gcc_arm/49/bin/../lib/gcc/arm-none-eabi/4.9.3/../../../../arm-none-eabi/lib/armv7e-m/fpu\libm.a(lib_a-s_atan.o)
 .text          0x00000000        0x0 c:/gcc_arm/49/bin/../lib/gcc/arm-none-eabi/4.9.3/../../../../arm-none-eabi/lib/armv7e-m/fpu\libm.a(lib_a-s_fabs.o)
 .data          0x00000000        0x0 c:/gcc_arm/49/bin/../lib/gcc/arm-none-eabi/4.9.3/../../../../arm-none-eabi/lib/armv7e-m/fpu\libm.a(lib_a-s_fabs.o)
 .bss           0x00000000        0x0 c:/gcc_arm/49/bin/../lib/gcc/arm-none-eabi/4.9.3/../../../../arm-none-eabi/lib/armv7e-m/fpu\libm.a(lib_a-s_fabs.o)
 .text          0x00000000        0x0 c:/gcc_arm/49/bin/../lib/gcc/arm-none-eabi/4.9.3/../../../../arm-none-eabi/lib/armv7e-m/fpu\libm.a(lib_a-s_finite.o)
 .data          0x00000000        0x0 c:/gcc_arm/49/bin/../lib/gcc/arm-none-eabi/4.9.3/../../../../arm-none-eabi/lib/armv7e-m/fpu\libm.a(lib_a-s_finite.o)
 .bss           0x00000000        0x0 c:/gcc_arm/49/bin/../lib/gcc/arm-none-eabi/4.9.3/../../../../arm-none-eabi/lib/armv7e-m/fpu\libm.a(lib_a-s_finite.o)
 .text          0x00000000        0x0 c:/gcc_arm/49/bin/../lib/gcc/arm-none-eabi/4.9.3/../../../../arm-none-eabi/lib/armv7e-m/fpu\libm.a(lib_a-s_floor.o)
 .data          0x00000000        0x0 c:/gcc_arm/49/bin/../lib/gcc/arm-none-eabi/4.9.3/../../../../arm-none-eabi/lib/armv7e-m/fpu\libm.a(lib_a-s_floor.o)
 .bss           0x00000000        0x0 c:/gcc_arm/49/bin/../lib/gcc/arm-none-eabi/4.9.3/../../../../arm-none-eabi/lib/armv7e-m/fpu\libm.a(lib_a-s_floor.o)
 .text.floor    0x00000000      0x120 c:/gcc_arm/49/bin/../lib/gcc/arm-none-eabi/4.9.3/../../../../arm-none-eabi/lib/armv7e-m/fpu\libm.a(lib_a-s_floor.o)
 .debug_frame   0x00000000       0x34 c:/gcc_arm/49/bin/../lib/gcc/arm-none-eabi/4.9.3/../../../../arm-none-eabi/lib/armv7e-m/fpu\libm.a(lib_a-s_floor.o)
 .ARM.attributes
                0x00000000       0x34 c:/gcc_arm/49/bin/../lib/gcc/arm-none-eabi/4.9.3/../../../../arm-none-eabi/lib/armv7e-m/fpu\libm.a(lib_a-s_floor.o)
 .text          0x00000000        0x0 c:/gcc_arm/49/bin/../lib/gcc/arm-none-eabi/4.9.3/../../../../arm-none-eabi/lib/armv7e-m/fpu\libm.a(lib_a-s_fpclassify.o)
 .data          0x00000000        0x0 c:/gcc_arm/49/bin/../lib/gcc/arm-none-eabi/4.9.3/../../../../arm-none-eabi/lib/armv7e-m/fpu\libm.a(lib_a-s_fpclassify.o)
 .bss           0x00000000        0x0 c:/gcc_arm/49/bin/../lib/gcc/arm-none-eabi/4.9.3/../../../../arm-none-eabi/lib/armv7e-m/fpu\libm.a(lib_a-s_fpclassify.o)
 .text          0x00000000        0x0 c:/gcc_arm/49/bin/../lib/gcc/arm-none-eabi/4.9.3/../../../../arm-none-eabi/lib/armv7e-m/fpu\libm.a(lib_a-s_lib_ver.o)
 .data          0x00000000        0x0 c:/gcc_arm/49/bin/../lib/gcc/arm-none-eabi/4.9.3/../../../../arm-none-eabi/lib/armv7e-m/fpu\libm.a(lib_a-s_lib_ver.o)
 .bss           0x00000000        0x0 c:/gcc_arm/49/bin/../lib/gcc/arm-none-eabi/4.9.3/../../../../arm-none-eabi/lib/armv7e-m/fpu\libm.a(lib_a-s_lib_ver.o)
 .text          0x00000000        0x0 c:/gcc_arm/49/bin/../lib/gcc/arm-none-eabi/4.9.3/../../../../arm-none-eabi/lib/armv7e-m/fpu\libm.a(lib_a-s_matherr.o)
 .data          0x00000000        0x0 c:/gcc_arm/49/bin/../lib/gcc/arm-none-eabi/4.9.3/../../../../arm-none-eabi/lib/armv7e-m/fpu\libm.a(lib_a-s_matherr.o)
 .bss           0x00000000        0x0 c:/gcc_arm/49/bin/../lib/gcc/arm-none-eabi/4.9.3/../../../../arm-none-eabi/lib/armv7e-m/fpu\libm.a(lib_a-s_matherr.o)
 .text          0x00000000        0x0 c:/gcc_arm/49/bin/../lib/gcc/arm-none-eabi/4.9.3/../../../../arm-none-eabi/lib/armv7e-m/fpu\libm.a(lib_a-s_nan.o)
 .data          0x00000000        0x0 c:/gcc_arm/49/bin/../lib/gcc/arm-none-eabi/4.9.3/../../../../arm-none-eabi/lib/armv7e-m/fpu\libm.a(lib_a-s_nan.o)
 .bss           0x00000000        0x0 c:/gcc_arm/49/bin/../lib/gcc/arm-none-eabi/4.9.3/../../../../arm-none-eabi/lib/armv7e-m/fpu\libm.a(lib_a-s_nan.o)
 .text          0x00000000        0x0 c:/gcc_arm/49/bin/../lib/gcc/arm-none-eabi/4.9.3/../../../../arm-none-eabi/lib/armv7e-m/fpu\libm.a(lib_a-s_rint.o)
 .data          0x00000000        0x0 c:/gcc_arm/49/bin/../lib/gcc/arm-none-eabi/4.9.3/../../../../arm-none-eabi/lib/armv7e-m/fpu\libm.a(lib_a-s_rint.o)
 .bss           0x00000000        0x0 c:/gcc_arm/49/bin/../lib/gcc/arm-none-eabi/4.9.3/../../../../arm-none-eabi/lib/armv7e-m/fpu\libm.a(lib_a-s_rint.o)
 .text          0x00000000        0x0 c:/gcc_arm/49/bin/../lib/gcc/arm-none-eabi/4.9.3/../../../../arm-none-eabi/lib/armv7e-m/fpu\libm.a(lib_a-s_scalbn.o)
 .data          0x00000000        0x0 c:/gcc_arm/49/bin/../lib/gcc/arm-none-eabi/4.9.3/../../../../arm-none-eabi/lib/armv7e-m/fpu\libm.a(lib_a-s_scalbn.o)
 .bss           0x00000000        0x0 c:/gcc_arm/49/bin/../lib/gcc/arm-none-eabi/4.9.3/../../../../arm-none-eabi/lib/armv7e-m/fpu\libm.a(lib_a-s_scalbn.o)
 .text          0x00000000        0x0 c:/gcc_arm/49/bin/../lib/gcc/arm-none-eabi/4.9.3/../../../../arm-none-eabi/lib/armv7e-m/fpu\libm.a(lib_a-sf_fpclassify.o)
 .data          0x00000000        0x0 c:/gcc_arm/49/bin/../lib/gcc/arm-none-eabi/4.9.3/../../../../arm-none-eabi/lib/armv7e-m/fpu\libm.a(lib_a-sf_fpclassify.o)
 .bss           0x00000000        0x0 c:/gcc_arm/49/bin/../lib/gcc/arm-none-eabi/4.9.3/../../../../arm-none-eabi/lib/armv7e-m/fpu\libm.a(lib_a-sf_fpclassify.o)
 .text          0x00000000        0x0 c:/gcc_arm/49/bin/../lib/gcc/arm-none-eabi/4.9.3/../../../../arm-none-eabi/lib/armv7e-m/fpu\libm.a(lib_a-ef_log.o)
 .data          0x00000000        0x0 c:/gcc_arm/49/bin/../lib/gcc/arm-none-eabi/4.9.3/../../../../arm-none-eabi/lib/armv7e-m/fpu\libm.a(lib_a-ef_log.o)
 .bss           0x00000000        0x0 c:/gcc_arm/49/bin/../lib/gcc/arm-none-eabi/4.9.3/../../../../arm-none-eabi/lib/armv7e-m/fpu\libm.a(lib_a-ef_log.o)
 .text          0x00000000        0x0 c:/gcc_arm/49/bin/../lib/gcc/arm-none-eabi/4.9.3/../../../../arm-none-eabi/lib/armv7e-m/fpu\libm.a(lib_a-s_copysign.o)
 .data          0x00000000        0x0 c:/gcc_arm/49/bin/../lib/gcc/arm-none-eabi/4.9.3/../../../../arm-none-eabi/lib/armv7e-m/fpu\libm.a(lib_a-s_copysign.o)
 .bss           0x00000000        0x0 c:/gcc_arm/49/bin/../lib/gcc/arm-none-eabi/4.9.3/../../../../arm-none-eabi/lib/armv7e-m/fpu\libm.a(lib_a-s_copysign.o)
 .data          0x00000000        0x0 c:/gcc_arm/49/bin/../lib/gcc/arm-none-eabi/4.9.3/armv7e-m/fpu\libgcc.a(_arm_addsubdf3.o)
 .bss           0x00000000        0x0 c:/gcc_arm/49/bin/../lib/gcc/arm-none-eabi/4.9.3/armv7e-m/fpu\libgcc.a(_arm_addsubdf3.o)
 .data          0x00000000        0x0 c:/gcc_arm/49/bin/../lib/gcc/arm-none-eabi/4.9.3/armv7e-m/fpu\libgcc.a(_arm_muldivdf3.o)
 .bss           0x00000000        0x0 c:/gcc_arm/49/bin/../lib/gcc/arm-none-eabi/4.9.3/armv7e-m/fpu\libgcc.a(_arm_muldivdf3.o)
 .data          0x00000000        0x0 c:/gcc_arm/49/bin/../lib/gcc/arm-none-eabi/4.9.3/armv7e-m/fpu\libgcc.a(_arm_cmpdf2.o)
 .bss           0x00000000        0x0 c:/gcc_arm/49/bin/../lib/gcc/arm-none-eabi/4.9.3/armv7e-m/fpu\libgcc.a(_arm_cmpdf2.o)
 .data          0x00000000        0x0 c:/gcc_arm/49/bin/../lib/gcc/arm-none-eabi/4.9.3/armv7e-m/fpu\libgcc.a(_arm_fixdfsi.o)
 .bss           0x00000000        0x0 c:/gcc_arm/49/bin/../lib/gcc/arm-none-eabi/4.9.3/armv7e-m/fpu\libgcc.a(_arm_fixdfsi.o)
 .data          0x00000000        0x0 c:/gcc_arm/49/bin/../lib/gcc/arm-none-eabi/4.9.3/armv7e-m/fpu\libgcc.a(_arm_fixunsdfsi.o)
 .bss           0x00000000        0x0 c:/gcc_arm/49/bin/../lib/gcc/arm-none-eabi/4.9.3/armv7e-m/fpu\libgcc.a(_arm_fixunsdfsi.o)
 .data          0x00000000        0x0 c:/gcc_arm/49/bin/../lib/gcc/arm-none-eabi/4.9.3/armv7e-m/fpu\libgcc.a(_arm_truncdfsf2.o)
 .bss           0x00000000        0x0 c:/gcc_arm/49/bin/../lib/gcc/arm-none-eabi/4.9.3/armv7e-m/fpu\libgcc.a(_arm_truncdfsf2.o)
 .text          0x00000000        0x0 c:/gcc_arm/49/bin/../lib/gcc/arm-none-eabi/4.9.3/../../../../arm-none-eabi/lib/armv7e-m/fpu\libg.a(lib_a-atoi.o)
 .data          0x00000000        0x0 c:/gcc_arm/49/bin/../lib/gcc/arm-none-eabi/4.9.3/../../../../arm-none-eabi/lib/armv7e-m/fpu\libg.a(lib_a-atoi.o)
 .bss           0x00000000        0x0 c:/gcc_arm/49/bin/../lib/gcc/arm-none-eabi/4.9.3/../../../../arm-none-eabi/lib/armv7e-m/fpu\libg.a(lib_a-atoi.o)
 .text._atoi_r  0x00000000        0x8 c:/gcc_arm/49/bin/../lib/gcc/arm-none-eabi/4.9.3/../../../../arm-none-eabi/lib/armv7e-m/fpu\libg.a(lib_a-atoi.o)
 .text          0x00000000        0x0 c:/gcc_arm/49/bin/../lib/gcc/arm-none-eabi/4.9.3/../../../../arm-none-eabi/lib/armv7e-m/fpu\libg.a(lib_a-errno.o)
 .data          0x00000000        0x0 c:/gcc_arm/49/bin/../lib/gcc/arm-none-eabi/4.9.3/../../../../arm-none-eabi/lib/armv7e-m/fpu\libg.a(lib_a-errno.o)
 .bss           0x00000000        0x0 c:/gcc_arm/49/bin/../lib/gcc/arm-none-eabi/4.9.3/../../../../arm-none-eabi/lib/armv7e-m/fpu\libg.a(lib_a-errno.o)
 .text          0x00000000        0x0 c:/gcc_arm/49/bin/../lib/gcc/arm-none-eabi/4.9.3/../../../../arm-none-eabi/lib/armv7e-m/fpu\libg.a(lib_a-impure.o)
 .data          0x00000000        0x0 c:/gcc_arm/49/bin/../lib/gcc/arm-none-eabi/4.9.3/../../../../arm-none-eabi/lib/armv7e-m/fpu\libg.a(lib_a-impure.o)
 .bss           0x00000000        0x0 c:/gcc_arm/49/bin/../lib/gcc/arm-none-eabi/4.9.3/../../../../arm-none-eabi/lib/armv7e-m/fpu\libg.a(lib_a-impure.o)
 .rodata._global_impure_ptr
                0x00000000        0x4 c:/gcc_arm/49/bin/../lib/gcc/arm-none-eabi/4.9.3/../../../../arm-none-eabi/lib/armv7e-m/fpu\libg.a(lib_a-impure.o)
 .text          0x00000000        0x0 c:/gcc_arm/49/bin/../lib/gcc/arm-none-eabi/4.9.3/../../../../arm-none-eabi/lib/armv7e-m/fpu\libg.a(lib_a-malloc.o)
 .data          0x00000000        0x0 c:/gcc_arm/49/bin/../lib/gcc/arm-none-eabi/4.9.3/../../../../arm-none-eabi/lib/armv7e-m/fpu\libg.a(lib_a-malloc.o)
 .bss           0x00000000        0x0 c:/gcc_arm/49/bin/../lib/gcc/arm-none-eabi/4.9.3/../../../../arm-none-eabi/lib/armv7e-m/fpu\libg.a(lib_a-malloc.o)
 .text          0x00000000        0x0 c:/gcc_arm/49/bin/../lib/gcc/arm-none-eabi/4.9.3/../../../../arm-none-eabi/lib/armv7e-m/fpu\libg.a(lib_a-mallocr.o)
 .data          0x00000000        0x0 c:/gcc_arm/49/bin/../lib/gcc/arm-none-eabi/4.9.3/../../../../arm-none-eabi/lib/armv7e-m/fpu\libg.a(lib_a-mallocr.o)
 .bss           0x00000000        0x0 c:/gcc_arm/49/bin/../lib/gcc/arm-none-eabi/4.9.3/../../../../arm-none-eabi/lib/armv7e-m/fpu\libg.a(lib_a-mallocr.o)
 .text          0x00000000        0x0 c:/gcc_arm/49/bin/../lib/gcc/arm-none-eabi/4.9.3/../../../../arm-none-eabi/lib/armv7e-m/fpu\libg.a(lib_a-memcmp.o)
 .data          0x00000000        0x0 c:/gcc_arm/49/bin/../lib/gcc/arm-none-eabi/4.9.3/../../../../arm-none-eabi/lib/armv7e-m/fpu\libg.a(lib_a-memcmp.o)
 .bss           0x00000000        0x0 c:/gcc_arm/49/bin/../lib/gcc/arm-none-eabi/4.9.3/../../../../arm-none-eabi/lib/armv7e-m/fpu\libg.a(lib_a-memcmp.o)
 .data          0x00000000        0x0 c:/gcc_arm/49/bin/../lib/gcc/arm-none-eabi/4.9.3/../../../../arm-none-eabi/lib/armv7e-m/fpu\libg.a(lib_a-memcpy.o)
 .bss           0x00000000        0x0 c:/gcc_arm/49/bin/../lib/gcc/arm-none-eabi/4.9.3/../../../../arm-none-eabi/lib/armv7e-m/fpu\libg.a(lib_a-memcpy.o)
 .text          0x00000000        0x0 c:/gcc_arm/49/bin/../lib/gcc/arm-none-eabi/4.9.3/../../../../arm-none-eabi/lib/armv7e-m/fpu\libg.a(lib_a-memset.o)
 .data          0x00000000        0x0 c:/gcc_arm/49/bin/../lib/gcc/arm-none-eabi/4.9.3/../../../../arm-none-eabi/lib/armv7e-m/fpu\libg.a(lib_a-memset.o)
 .bss           0x00000000        0x0 c:/gcc_arm/49/bin/../lib/gcc/arm-none-eabi/4.9.3/../../../../arm-none-eabi/lib/armv7e-m/fpu\libg.a(lib_a-memset.o)
 .text          0x00000000        0x0 c:/gcc_arm/49/bin/../lib/gcc/arm-none-eabi/4.9.3/../../../../arm-none-eabi/lib/armv7e-m/fpu\libg.a(lib_a-mlock.o)
 .data          0x00000000        0x0 c:/gcc_arm/49/bin/../lib/gcc/arm-none-eabi/4.9.3/../../../../arm-none-eabi/lib/armv7e-m/fpu\libg.a(lib_a-mlock.o)
 .bss           0x00000000        0x0 c:/gcc_arm/49/bin/../lib/gcc/arm-none-eabi/4.9.3/../../../../arm-none-eabi/lib/armv7e-m/fpu\libg.a(lib_a-mlock.o)
 .text          0x00000000        0x0 c:/gcc_arm/49/bin/../lib/gcc/arm-none-eabi/4.9.3/../../../../arm-none-eabi/lib/armv7e-m/fpu\libg.a(lib_a-printf.o)
 .data          0x00000000        0x0 c:/gcc_arm/49/bin/../lib/gcc/arm-none-eabi/4.9.3/../../../../arm-none-eabi/lib/armv7e-m/fpu\libg.a(lib_a-printf.o)
 .bss           0x00000000        0x0 c:/gcc_arm/49/bin/../lib/gcc/arm-none-eabi/4.9.3/../../../../arm-none-eabi/lib/armv7e-m/fpu\libg.a(lib_a-printf.o)
 .text._printf_r
                0x00000000       0x20 c:/gcc_arm/49/bin/../lib/gcc/arm-none-eabi/4.9.3/../../../../arm-none-eabi/lib/armv7e-m/fpu\libg.a(lib_a-printf.o)
 .text          0x00000000        0x0 c:/gcc_arm/49/bin/../lib/gcc/arm-none-eabi/4.9.3/../../../../arm-none-eabi/lib/armv7e-m/fpu\libg.a(lib_a-putchar.o)
 .data          0x00000000        0x0 c:/gcc_arm/49/bin/../lib/gcc/arm-none-eabi/4.9.3/../../../../arm-none-eabi/lib/armv7e-m/fpu\libg.a(lib_a-putchar.o)
 .bss           0x00000000        0x0 c:/gcc_arm/49/bin/../lib/gcc/arm-none-eabi/4.9.3/../../../../arm-none-eabi/lib/armv7e-m/fpu\libg.a(lib_a-putchar.o)
 .text._putchar_r
                0x00000000        0x8 c:/gcc_arm/49/bin/../lib/gcc/arm-none-eabi/4.9.3/../../../../arm-none-eabi/lib/armv7e-m/fpu\libg.a(lib_a-putchar.o)
 .text          0x00000000        0x0 c:/gcc_arm/49/bin/../lib/gcc/arm-none-eabi/4.9.3/../../../../arm-none-eabi/lib/armv7e-m/fpu\libg.a(lib_a-puts.o)
 .data          0x00000000        0x0 c:/gcc_arm/49/bin/../lib/gcc/arm-none-eabi/4.9.3/../../../../arm-none-eabi/lib/armv7e-m/fpu\libg.a(lib_a-puts.o)
 .bss           0x00000000        0x0 c:/gcc_arm/49/bin/../lib/gcc/arm-none-eabi/4.9.3/../../../../arm-none-eabi/lib/armv7e-m/fpu\libg.a(lib_a-puts.o)
 .text          0x00000000        0x0 c:/gcc_arm/49/bin/../lib/gcc/arm-none-eabi/4.9.3/../../../../arm-none-eabi/lib/armv7e-m/fpu\libg.a(lib_a-sbrkr.o)
 .data          0x00000000        0x0 c:/gcc_arm/49/bin/../lib/gcc/arm-none-eabi/4.9.3/../../../../arm-none-eabi/lib/armv7e-m/fpu\libg.a(lib_a-sbrkr.o)
 .bss           0x00000000        0x0 c:/gcc_arm/49/bin/../lib/gcc/arm-none-eabi/4.9.3/../../../../arm-none-eabi/lib/armv7e-m/fpu\libg.a(lib_a-sbrkr.o)
 .text          0x00000000        0x0 c:/gcc_arm/49/bin/../lib/gcc/arm-none-eabi/4.9.3/../../../../arm-none-eabi/lib/armv7e-m/fpu\libg.a(lib_a-sprintf.o)
 .data          0x00000000        0x0 c:/gcc_arm/49/bin/../lib/gcc/arm-none-eabi/4.9.3/../../../../arm-none-eabi/lib/armv7e-m/fpu\libg.a(lib_a-sprintf.o)
 .bss           0x00000000        0x0 c:/gcc_arm/49/bin/../lib/gcc/arm-none-eabi/4.9.3/../../../../arm-none-eabi/lib/armv7e-m/fpu\libg.a(lib_a-sprintf.o)
 .text._sprintf_r
                0x00000000       0x44 c:/gcc_arm/49/bin/../lib/gcc/arm-none-eabi/4.9.3/../../../../arm-none-eabi/lib/armv7e-m/fpu\libg.a(lib_a-sprintf.o)
 .text          0x00000000        0x0 c:/gcc_arm/49/bin/../lib/gcc/arm-none-eabi/4.9.3/../../../../arm-none-eabi/lib/armv7e-m/fpu\libg.a(lib_a-strcat.o)
 .data          0x00000000        0x0 c:/gcc_arm/49/bin/../lib/gcc/arm-none-eabi/4.9.3/../../../../arm-none-eabi/lib/armv7e-m/fpu\libg.a(lib_a-strcat.o)
 .bss           0x00000000        0x0 c:/gcc_arm/49/bin/../lib/gcc/arm-none-eabi/4.9.3/../../../../arm-none-eabi/lib/armv7e-m/fpu\libg.a(lib_a-strcat.o)
 .text          0x00000000        0x0 c:/gcc_arm/49/bin/../lib/gcc/arm-none-eabi/4.9.3/../../../../arm-none-eabi/lib/armv7e-m/fpu\libg.a(lib_a-strcpy.o)
 .data          0x00000000        0x0 c:/gcc_arm/49/bin/../lib/gcc/arm-none-eabi/4.9.3/../../../../arm-none-eabi/lib/armv7e-m/fpu\libg.a(lib_a-strcpy.o)
 .bss           0x00000000        0x0 c:/gcc_arm/49/bin/../lib/gcc/arm-none-eabi/4.9.3/../../../../arm-none-eabi/lib/armv7e-m/fpu\libg.a(lib_a-strcpy.o)
 .text          0x00000000        0x0 c:/gcc_arm/49/bin/../lib/gcc/arm-none-eabi/4.9.3/../../../../arm-none-eabi/lib/armv7e-m/fpu\libg.a(lib_a-strlen.o)
 .data          0x00000000        0x0 c:/gcc_arm/49/bin/../lib/gcc/arm-none-eabi/4.9.3/../../../../arm-none-eabi/lib/armv7e-m/fpu\libg.a(lib_a-strlen.o)
 .bss           0x00000000        0x0 c:/gcc_arm/49/bin/../lib/gcc/arm-none-eabi/4.9.3/../../../../arm-none-eabi/lib/armv7e-m/fpu\libg.a(lib_a-strlen.o)
 .text          0x00000000        0x0 c:/gcc_arm/49/bin/../lib/gcc/arm-none-eabi/4.9.3/../../../../arm-none-eabi/lib/armv7e-m/fpu\libg.a(lib_a-strncmp.o)
 .data          0x00000000        0x0 c:/gcc_arm/49/bin/../lib/gcc/arm-none-eabi/4.9.3/../../../../arm-none-eabi/lib/armv7e-m/fpu\libg.a(lib_a-strncmp.o)
 .bss           0x00000000        0x0 c:/gcc_arm/49/bin/../lib/gcc/arm-none-eabi/4.9.3/../../../../arm-none-eabi/lib/armv7e-m/fpu\libg.a(lib_a-strncmp.o)
 .text          0x00000000        0x0 c:/gcc_arm/49/bin/../lib/gcc/arm-none-eabi/4.9.3/../../../../arm-none-eabi/lib/armv7e-m/fpu\libg.a(lib_a-strncpy.o)
 .data          0x00000000        0x0 c:/gcc_arm/49/bin/../lib/gcc/arm-none-eabi/4.9.3/../../../../arm-none-eabi/lib/armv7e-m/fpu\libg.a(lib_a-strncpy.o)
 .bss           0x00000000        0x0 c:/gcc_arm/49/bin/../lib/gcc/arm-none-eabi/4.9.3/../../../../arm-none-eabi/lib/armv7e-m/fpu\libg.a(lib_a-strncpy.o)
 .text          0x00000000        0x0 c:/gcc_arm/49/bin/../lib/gcc/arm-none-eabi/4.9.3/../../../../arm-none-eabi/lib/armv7e-m/fpu\libg.a(lib_a-strstr.o)
 .data          0x00000000        0x0 c:/gcc_arm/49/bin/../lib/gcc/arm-none-eabi/4.9.3/../../../../arm-none-eabi/lib/armv7e-m/fpu\libg.a(lib_a-strstr.o)
 .bss           0x00000000        0x0 c:/gcc_arm/49/bin/../lib/gcc/arm-none-eabi/4.9.3/../../../../arm-none-eabi/lib/armv7e-m/fpu\libg.a(lib_a-strstr.o)
 .text          0x00000000        0x0 c:/gcc_arm/49/bin/../lib/gcc/arm-none-eabi/4.9.3/../../../../arm-none-eabi/lib/armv7e-m/fpu\libg.a(lib_a-strtok.o)
 .data          0x00000000        0x0 c:/gcc_arm/49/bin/../lib/gcc/arm-none-eabi/4.9.3/../../../../arm-none-eabi/lib/armv7e-m/fpu\libg.a(lib_a-strtok.o)
 .bss           0x00000000        0x0 c:/gcc_arm/49/bin/../lib/gcc/arm-none-eabi/4.9.3/../../../../arm-none-eabi/lib/armv7e-m/fpu\libg.a(lib_a-strtok.o)
 .text          0x00000000        0x0 c:/gcc_arm/49/bin/../lib/gcc/arm-none-eabi/4.9.3/../../../../arm-none-eabi/lib/armv7e-m/fpu\libg.a(lib_a-strtok_r.o)
 .data          0x00000000        0x0 c:/gcc_arm/49/bin/../lib/gcc/arm-none-eabi/4.9.3/../../../../arm-none-eabi/lib/armv7e-m/fpu\libg.a(lib_a-strtok_r.o)
 .bss           0x00000000        0x0 c:/gcc_arm/49/bin/../lib/gcc/arm-none-eabi/4.9.3/../../../../arm-none-eabi/lib/armv7e-m/fpu\libg.a(lib_a-strtok_r.o)
 .text.strtok_r
                0x00000000        0x8 c:/gcc_arm/49/bin/../lib/gcc/arm-none-eabi/4.9.3/../../../../arm-none-eabi/lib/armv7e-m/fpu\libg.a(lib_a-strtok_r.o)
 .text          0x00000000        0x0 c:/gcc_arm/49/bin/../lib/gcc/arm-none-eabi/4.9.3/../../../../arm-none-eabi/lib/armv7e-m/fpu\libg.a(lib_a-strtol.o)
 .data          0x00000000        0x0 c:/gcc_arm/49/bin/../lib/gcc/arm-none-eabi/4.9.3/../../../../arm-none-eabi/lib/armv7e-m/fpu\libg.a(lib_a-strtol.o)
 .bss           0x00000000        0x0 c:/gcc_arm/49/bin/../lib/gcc/arm-none-eabi/4.9.3/../../../../arm-none-eabi/lib/armv7e-m/fpu\libg.a(lib_a-strtol.o)
 .text          0x00000000        0x0 c:/gcc_arm/49/bin/../lib/gcc/arm-none-eabi/4.9.3/../../../../arm-none-eabi/lib/armv7e-m/fpu\libg.a(lib_a-svfprintf.o)
 .data          0x00000000        0x0 c:/gcc_arm/49/bin/../lib/gcc/arm-none-eabi/4.9.3/../../../../arm-none-eabi/lib/armv7e-m/fpu\libg.a(lib_a-svfprintf.o)
 .bss           0x00000000        0x0 c:/gcc_arm/49/bin/../lib/gcc/arm-none-eabi/4.9.3/../../../../arm-none-eabi/lib/armv7e-m/fpu\libg.a(lib_a-svfprintf.o)
 .text          0x00000000        0x0 c:/gcc_arm/49/bin/../lib/gcc/arm-none-eabi/4.9.3/../../../../arm-none-eabi/lib/armv7e-m/fpu\libg.a(lib_a-vfprintf.o)
 .data          0x00000000        0x0 c:/gcc_arm/49/bin/../lib/gcc/arm-none-eabi/4.9.3/../../../../arm-none-eabi/lib/armv7e-m/fpu\libg.a(lib_a-vfprintf.o)
 .bss           0x00000000        0x0 c:/gcc_arm/49/bin/../lib/gcc/arm-none-eabi/4.9.3/../../../../arm-none-eabi/lib/armv7e-m/fpu\libg.a(lib_a-vfprintf.o)
 .text.vfprintf
                0x00000000       0x18 c:/gcc_arm/49/bin/../lib/gcc/arm-none-eabi/4.9.3/../../../../arm-none-eabi/lib/armv7e-m/fpu\libg.a(lib_a-vfprintf.o)
 .text          0x00000000        0x0 c:/gcc_arm/49/bin/../lib/gcc/arm-none-eabi/4.9.3/../../../../arm-none-eabi/lib/armv7e-m/fpu\libg.a(lib_a-wsetup.o)
 .data          0x00000000        0x0 c:/gcc_arm/49/bin/../lib/gcc/arm-none-eabi/4.9.3/../../../../arm-none-eabi/lib/armv7e-m/fpu\libg.a(lib_a-wsetup.o)
 .bss           0x00000000        0x0 c:/gcc_arm/49/bin/../lib/gcc/arm-none-eabi/4.9.3/../../../../arm-none-eabi/lib/armv7e-m/fpu\libg.a(lib_a-wsetup.o)
 .text          0x00000000        0x0 c:/gcc_arm/49/bin/../lib/gcc/arm-none-eabi/4.9.3/../../../../arm-none-eabi/lib/armv7e-m/fpu\libg.a(lib_a-ctype_.o)
 .data          0x00000000        0x0 c:/gcc_arm/49/bin/../lib/gcc/arm-none-eabi/4.9.3/../../../../arm-none-eabi/lib/armv7e-m/fpu\libg.a(lib_a-ctype_.o)
 .bss           0x00000000        0x0 c:/gcc_arm/49/bin/../lib/gcc/arm-none-eabi/4.9.3/../../../../arm-none-eabi/lib/armv7e-m/fpu\libg.a(lib_a-ctype_.o)
 .text          0x00000000        0x0 c:/gcc_arm/49/bin/../lib/gcc/arm-none-eabi/4.9.3/../../../../arm-none-eabi/lib/armv7e-m/fpu\libg.a(lib_a-dtoa.o)
 .data          0x00000000        0x0 c:/gcc_arm/49/bin/../lib/gcc/arm-none-eabi/4.9.3/../../../../arm-none-eabi/lib/armv7e-m/fpu\libg.a(lib_a-dtoa.o)
 .bss           0x00000000        0x0 c:/gcc_arm/49/bin/../lib/gcc/arm-none-eabi/4.9.3/../../../../arm-none-eabi/lib/armv7e-m/fpu\libg.a(lib_a-dtoa.o)
 .text          0x00000000        0x0 c:/gcc_arm/49/bin/../lib/gcc/arm-none-eabi/4.9.3/../../../../arm-none-eabi/lib/armv7e-m/fpu\libg.a(lib_a-fflush.o)
 .data          0x00000000        0x0 c:/gcc_arm/49/bin/../lib/gcc/arm-none-eabi/4.9.3/../../../../arm-none-eabi/lib/armv7e-m/fpu\libg.a(lib_a-fflush.o)
 .bss           0x00000000        0x0 c:/gcc_arm/49/bin/../lib/gcc/arm-none-eabi/4.9.3/../../../../arm-none-eabi/lib/armv7e-m/fpu\libg.a(lib_a-fflush.o)
 .text.fflush   0x00000000       0x24 c:/gcc_arm/49/bin/../lib/gcc/arm-none-eabi/4.9.3/../../../../arm-none-eabi/lib/armv7e-m/fpu\libg.a(lib_a-fflush.o)
 .text          0x00000000        0x0 c:/gcc_arm/49/bin/../lib/gcc/arm-none-eabi/4.9.3/../../../../arm-none-eabi/lib/armv7e-m/fpu\libg.a(lib_a-findfp.o)
 .data          0x00000000        0x0 c:/gcc_arm/49/bin/../lib/gcc/arm-none-eabi/4.9.3/../../../../arm-none-eabi/lib/armv7e-m/fpu\libg.a(lib_a-findfp.o)
 .bss           0x00000000        0x0 c:/gcc_arm/49/bin/../lib/gcc/arm-none-eabi/4.9.3/../../../../arm-none-eabi/lib/armv7e-m/fpu\libg.a(lib_a-findfp.o)
 .text.__fp_lock
                0x00000000        0x4 c:/gcc_arm/49/bin/../lib/gcc/arm-none-eabi/4.9.3/../../../../arm-none-eabi/lib/armv7e-m/fpu\libg.a(lib_a-findfp.o)
 .text.__fp_unlock
                0x00000000        0x4 c:/gcc_arm/49/bin/../lib/gcc/arm-none-eabi/4.9.3/../../../../arm-none-eabi/lib/armv7e-m/fpu\libg.a(lib_a-findfp.o)
 .text.__sfmoreglue
                0x00000000       0x30 c:/gcc_arm/49/bin/../lib/gcc/arm-none-eabi/4.9.3/../../../../arm-none-eabi/lib/armv7e-m/fpu\libg.a(lib_a-findfp.o)
 .text.__sfp    0x00000000       0x88 c:/gcc_arm/49/bin/../lib/gcc/arm-none-eabi/4.9.3/../../../../arm-none-eabi/lib/armv7e-m/fpu\libg.a(lib_a-findfp.o)
 .text._cleanup
                0x00000000       0x14 c:/gcc_arm/49/bin/../lib/gcc/arm-none-eabi/4.9.3/../../../../arm-none-eabi/lib/armv7e-m/fpu\libg.a(lib_a-findfp.o)
 .text.__sinit_lock_acquire
                0x00000000        0x4 c:/gcc_arm/49/bin/../lib/gcc/arm-none-eabi/4.9.3/../../../../arm-none-eabi/lib/armv7e-m/fpu\libg.a(lib_a-findfp.o)
 .text.__sinit_lock_release
                0x00000000        0x4 c:/gcc_arm/49/bin/../lib/gcc/arm-none-eabi/4.9.3/../../../../arm-none-eabi/lib/armv7e-m/fpu\libg.a(lib_a-findfp.o)
 .text.__fp_lock_all
                0x00000000       0x14 c:/gcc_arm/49/bin/../lib/gcc/arm-none-eabi/4.9.3/../../../../arm-none-eabi/lib/armv7e-m/fpu\libg.a(lib_a-findfp.o)
 .text.__fp_unlock_all
                0x00000000       0x14 c:/gcc_arm/49/bin/../lib/gcc/arm-none-eabi/4.9.3/../../../../arm-none-eabi/lib/armv7e-m/fpu\libg.a(lib_a-findfp.o)
 .text          0x00000000        0x0 c:/gcc_arm/49/bin/../lib/gcc/arm-none-eabi/4.9.3/../../../../arm-none-eabi/lib/armv7e-m/fpu\libg.a(lib_a-freer.o)
 .data          0x00000000        0x0 c:/gcc_arm/49/bin/../lib/gcc/arm-none-eabi/4.9.3/../../../../arm-none-eabi/lib/armv7e-m/fpu\libg.a(lib_a-freer.o)
 .bss           0x00000000        0x0 c:/gcc_arm/49/bin/../lib/gcc/arm-none-eabi/4.9.3/../../../../arm-none-eabi/lib/armv7e-m/fpu\libg.a(lib_a-freer.o)
 .text          0x00000000        0x0 c:/gcc_arm/49/bin/../lib/gcc/arm-none-eabi/4.9.3/../../../../arm-none-eabi/lib/armv7e-m/fpu\libg.a(lib_a-fvwrite.o)
 .data          0x00000000        0x0 c:/gcc_arm/49/bin/../lib/gcc/arm-none-eabi/4.9.3/../../../../arm-none-eabi/lib/armv7e-m/fpu\libg.a(lib_a-fvwrite.o)
 .bss           0x00000000        0x0 c:/gcc_arm/49/bin/../lib/gcc/arm-none-eabi/4.9.3/../../../../arm-none-eabi/lib/armv7e-m/fpu\libg.a(lib_a-fvwrite.o)
 .text          0x00000000        0x0 c:/gcc_arm/49/bin/../lib/gcc/arm-none-eabi/4.9.3/../../../../arm-none-eabi/lib/armv7e-m/fpu\libg.a(lib_a-fwalk.o)
 .data          0x00000000        0x0 c:/gcc_arm/49/bin/../lib/gcc/arm-none-eabi/4.9.3/../../../../arm-none-eabi/lib/armv7e-m/fpu\libg.a(lib_a-fwalk.o)
 .bss           0x00000000        0x0 c:/gcc_arm/49/bin/../lib/gcc/arm-none-eabi/4.9.3/../../../../arm-none-eabi/lib/armv7e-m/fpu\libg.a(lib_a-fwalk.o)
 .text._fwalk   0x00000000       0x4c c:/gcc_arm/49/bin/../lib/gcc/arm-none-eabi/4.9.3/../../../../arm-none-eabi/lib/armv7e-m/fpu\libg.a(lib_a-fwalk.o)
 .text          0x00000000        0x0 c:/gcc_arm/49/bin/../lib/gcc/arm-none-eabi/4.9.3/../../../../arm-none-eabi/lib/armv7e-m/fpu\libg.a(lib_a-locale.o)
 .data          0x00000000        0x0 c:/gcc_arm/49/bin/../lib/gcc/arm-none-eabi/4.9.3/../../../../arm-none-eabi/lib/armv7e-m/fpu\libg.a(lib_a-locale.o)
 .bss           0x00000000        0x0 c:/gcc_arm/49/bin/../lib/gcc/arm-none-eabi/4.9.3/../../../../arm-none-eabi/lib/armv7e-m/fpu\libg.a(lib_a-locale.o)
 .text._setlocale_r
                0x00000000       0x44 c:/gcc_arm/49/bin/../lib/gcc/arm-none-eabi/4.9.3/../../../../arm-none-eabi/lib/armv7e-m/fpu\libg.a(lib_a-locale.o)
 .text.__locale_msgcharset
                0x00000000        0x8 c:/gcc_arm/49/bin/../lib/gcc/arm-none-eabi/4.9.3/../../../../arm-none-eabi/lib/armv7e-m/fpu\libg.a(lib_a-locale.o)
 .text.__locale_cjk_lang
                0x00000000        0x4 c:/gcc_arm/49/bin/../lib/gcc/arm-none-eabi/4.9.3/../../../../arm-none-eabi/lib/armv7e-m/fpu\libg.a(lib_a-locale.o)
 .text.setlocale
                0x00000000       0x10 c:/gcc_arm/49/bin/../lib/gcc/arm-none-eabi/4.9.3/../../../../arm-none-eabi/lib/armv7e-m/fpu\libg.a(lib_a-locale.o)
 .text.localeconv
                0x00000000        0x8 c:/gcc_arm/49/bin/../lib/gcc/arm-none-eabi/4.9.3/../../../../arm-none-eabi/lib/armv7e-m/fpu\libg.a(lib_a-locale.o)
 .data.lc_message_charset
                0x00000000       0x20 c:/gcc_arm/49/bin/../lib/gcc/arm-none-eabi/4.9.3/../../../../arm-none-eabi/lib/armv7e-m/fpu\libg.a(lib_a-locale.o)
 .bss._PathLocale
                0x00000000        0x4 c:/gcc_arm/49/bin/../lib/gcc/arm-none-eabi/4.9.3/../../../../arm-none-eabi/lib/armv7e-m/fpu\libg.a(lib_a-locale.o)
 .bss.__nlocale_changed
                0x00000000        0x4 c:/gcc_arm/49/bin/../lib/gcc/arm-none-eabi/4.9.3/../../../../arm-none-eabi/lib/armv7e-m/fpu\libg.a(lib_a-locale.o)
 .bss.__mlocale_changed
                0x00000000        0x4 c:/gcc_arm/49/bin/../lib/gcc/arm-none-eabi/4.9.3/../../../../arm-none-eabi/lib/armv7e-m/fpu\libg.a(lib_a-locale.o)
 .text          0x00000000        0x0 c:/gcc_arm/49/bin/../lib/gcc/arm-none-eabi/4.9.3/../../../../arm-none-eabi/lib/armv7e-m/fpu\libg.a(lib_a-makebuf.o)
 .data          0x00000000        0x0 c:/gcc_arm/49/bin/../lib/gcc/arm-none-eabi/4.9.3/../../../../arm-none-eabi/lib/armv7e-m/fpu\libg.a(lib_a-makebuf.o)
 .bss           0x00000000        0x0 c:/gcc_arm/49/bin/../lib/gcc/arm-none-eabi/4.9.3/../../../../arm-none-eabi/lib/armv7e-m/fpu\libg.a(lib_a-makebuf.o)
 .text          0x00000000        0x0 c:/gcc_arm/49/bin/../lib/gcc/arm-none-eabi/4.9.3/../../../../arm-none-eabi/lib/armv7e-m/fpu\libg.a(lib_a-memchr.o)
 .data          0x00000000        0x0 c:/gcc_arm/49/bin/../lib/gcc/arm-none-eabi/4.9.3/../../../../arm-none-eabi/lib/armv7e-m/fpu\libg.a(lib_a-memchr.o)
 .bss           0x00000000        0x0 c:/gcc_arm/49/bin/../lib/gcc/arm-none-eabi/4.9.3/../../../../arm-none-eabi/lib/armv7e-m/fpu\libg.a(lib_a-memchr.o)
 .text          0x00000000        0x0 c:/gcc_arm/49/bin/../lib/gcc/arm-none-eabi/4.9.3/../../../../arm-none-eabi/lib/armv7e-m/fpu\libg.a(lib_a-memmove.o)
 .data          0x00000000        0x0 c:/gcc_arm/49/bin/../lib/gcc/arm-none-eabi/4.9.3/../../../../arm-none-eabi/lib/armv7e-m/fpu\libg.a(lib_a-memmove.o)
 .bss           0x00000000        0x0 c:/gcc_arm/49/bin/../lib/gcc/arm-none-eabi/4.9.3/../../../../arm-none-eabi/lib/armv7e-m/fpu\libg.a(lib_a-memmove.o)
 .text          0x00000000        0x0 c:/gcc_arm/49/bin/../lib/gcc/arm-none-eabi/4.9.3/../../../../arm-none-eabi/lib/armv7e-m/fpu\libg.a(lib_a-mprec.o)
 .data          0x00000000        0x0 c:/gcc_arm/49/bin/../lib/gcc/arm-none-eabi/4.9.3/../../../../arm-none-eabi/lib/armv7e-m/fpu\libg.a(lib_a-mprec.o)
 .bss           0x00000000        0x0 c:/gcc_arm/49/bin/../lib/gcc/arm-none-eabi/4.9.3/../../../../arm-none-eabi/lib/armv7e-m/fpu\libg.a(lib_a-mprec.o)
 .text.__s2b    0x00000000       0x98 c:/gcc_arm/49/bin/../lib/gcc/arm-none-eabi/4.9.3/../../../../arm-none-eabi/lib/armv7e-m/fpu\libg.a(lib_a-mprec.o)
 .text.__ulp    0x00000000       0x50 c:/gcc_arm/49/bin/../lib/gcc/arm-none-eabi/4.9.3/../../../../arm-none-eabi/lib/armv7e-m/fpu\libg.a(lib_a-mprec.o)
 .text.__b2d    0x00000000       0xc4 c:/gcc_arm/49/bin/../lib/gcc/arm-none-eabi/4.9.3/../../../../arm-none-eabi/lib/armv7e-m/fpu\libg.a(lib_a-mprec.o)
 .text.__ratio  0x00000000       0x60 c:/gcc_arm/49/bin/../lib/gcc/arm-none-eabi/4.9.3/../../../../arm-none-eabi/lib/armv7e-m/fpu\libg.a(lib_a-mprec.o)
 .text._mprec_log10
                0x00000000       0x38 c:/gcc_arm/49/bin/../lib/gcc/arm-none-eabi/4.9.3/../../../../arm-none-eabi/lib/armv7e-m/fpu\libg.a(lib_a-mprec.o)
 .text.__copybits
                0x00000000       0x48 c:/gcc_arm/49/bin/../lib/gcc/arm-none-eabi/4.9.3/../../../../arm-none-eabi/lib/armv7e-m/fpu\libg.a(lib_a-mprec.o)
 .text.__any_on
                0x00000000       0x60 c:/gcc_arm/49/bin/../lib/gcc/arm-none-eabi/4.9.3/../../../../arm-none-eabi/lib/armv7e-m/fpu\libg.a(lib_a-mprec.o)
 .rodata.__mprec_tinytens
                0x00000000       0x28 c:/gcc_arm/49/bin/../lib/gcc/arm-none-eabi/4.9.3/../../../../arm-none-eabi/lib/armv7e-m/fpu\libg.a(lib_a-mprec.o)
 .text          0x00000000        0x0 c:/gcc_arm/49/bin/../lib/gcc/arm-none-eabi/4.9.3/../../../../arm-none-eabi/lib/armv7e-m/fpu\libg.a(lib_a-putc.o)
 .data          0x00000000        0x0 c:/gcc_arm/49/bin/../lib/gcc/arm-none-eabi/4.9.3/../../../../arm-none-eabi/lib/armv7e-m/fpu\libg.a(lib_a-putc.o)
 .bss           0x00000000        0x0 c:/gcc_arm/49/bin/../lib/gcc/arm-none-eabi/4.9.3/../../../../arm-none-eabi/lib/armv7e-m/fpu\libg.a(lib_a-putc.o)
 .text.putc     0x00000000       0x60 c:/gcc_arm/49/bin/../lib/gcc/arm-none-eabi/4.9.3/../../../../arm-none-eabi/lib/armv7e-m/fpu\libg.a(lib_a-putc.o)
 .text          0x00000000        0x0 c:/gcc_arm/49/bin/../lib/gcc/arm-none-eabi/4.9.3/../../../../arm-none-eabi/lib/armv7e-m/fpu\libg.a(lib_a-reallocr.o)
 .data          0x00000000        0x0 c:/gcc_arm/49/bin/../lib/gcc/arm-none-eabi/4.9.3/../../../../arm-none-eabi/lib/armv7e-m/fpu\libg.a(lib_a-reallocr.o)
 .bss           0x00000000        0x0 c:/gcc_arm/49/bin/../lib/gcc/arm-none-eabi/4.9.3/../../../../arm-none-eabi/lib/armv7e-m/fpu\libg.a(lib_a-reallocr.o)
 .text          0x00000000        0x0 c:/gcc_arm/49/bin/../lib/gcc/arm-none-eabi/4.9.3/../../../../arm-none-eabi/lib/armv7e-m/fpu\libg.a(lib_a-reent.o)
 .data          0x00000000        0x0 c:/gcc_arm/49/bin/../lib/gcc/arm-none-eabi/4.9.3/../../../../arm-none-eabi/lib/armv7e-m/fpu\libg.a(lib_a-reent.o)
 .bss           0x00000000        0x0 c:/gcc_arm/49/bin/../lib/gcc/arm-none-eabi/4.9.3/../../../../arm-none-eabi/lib/armv7e-m/fpu\libg.a(lib_a-reent.o)
 .text.cleanup_glue
                0x00000000       0x1c c:/gcc_arm/49/bin/../lib/gcc/arm-none-eabi/4.9.3/../../../../arm-none-eabi/lib/armv7e-m/fpu\libg.a(lib_a-reent.o)
 .text._reclaim_reent
                0x00000000       0x88 c:/gcc_arm/49/bin/../lib/gcc/arm-none-eabi/4.9.3/../../../../arm-none-eabi/lib/armv7e-m/fpu\libg.a(lib_a-reent.o)
 .text          0x00000000        0x0 c:/gcc_arm/49/bin/../lib/gcc/arm-none-eabi/4.9.3/../../../../arm-none-eabi/lib/armv7e-m/fpu\libg.a(lib_a-stdio.o)
 .data          0x00000000        0x0 c:/gcc_arm/49/bin/../lib/gcc/arm-none-eabi/4.9.3/../../../../arm-none-eabi/lib/armv7e-m/fpu\libg.a(lib_a-stdio.o)
 .bss           0x00000000        0x0 c:/gcc_arm/49/bin/../lib/gcc/arm-none-eabi/4.9.3/../../../../arm-none-eabi/lib/armv7e-m/fpu\libg.a(lib_a-stdio.o)
 .text.__seofread
                0x00000000        0x4 c:/gcc_arm/49/bin/../lib/gcc/arm-none-eabi/4.9.3/../../../../arm-none-eabi/lib/armv7e-m/fpu\libg.a(lib_a-stdio.o)
 .text          0x00000000        0x0 c:/gcc_arm/49/bin/../lib/gcc/arm-none-eabi/4.9.3/../../../../arm-none-eabi/lib/armv7e-m/fpu\libg.a(lib_a-strchr.o)
 .data          0x00000000        0x0 c:/gcc_arm/49/bin/../lib/gcc/arm-none-eabi/4.9.3/../../../../arm-none-eabi/lib/armv7e-m/fpu\libg.a(lib_a-strchr.o)
 .bss           0x00000000        0x0 c:/gcc_arm/49/bin/../lib/gcc/arm-none-eabi/4.9.3/../../../../arm-none-eabi/lib/armv7e-m/fpu\libg.a(lib_a-strchr.o)
 .text          0x00000000      0x2dc c:/gcc_arm/49/bin/../lib/gcc/arm-none-eabi/4.9.3/../../../../arm-none-eabi/lib/armv7e-m/fpu\libg.a(lib_a-strcmp.o)
 .data          0x00000000        0x0 c:/gcc_arm/49/bin/../lib/gcc/arm-none-eabi/4.9.3/../../../../arm-none-eabi/lib/armv7e-m/fpu\libg.a(lib_a-strcmp.o)
 .bss           0x00000000        0x0 c:/gcc_arm/49/bin/../lib/gcc/arm-none-eabi/4.9.3/../../../../arm-none-eabi/lib/armv7e-m/fpu\libg.a(lib_a-strcmp.o)
 .eh_frame      0x00000000       0x70 c:/gcc_arm/49/bin/../lib/gcc/arm-none-eabi/4.9.3/../../../../arm-none-eabi/lib/armv7e-m/fpu\libg.a(lib_a-strcmp.o)
 .ARM.attributes
                0x00000000       0x20 c:/gcc_arm/49/bin/../lib/gcc/arm-none-eabi/4.9.3/../../../../arm-none-eabi/lib/armv7e-m/fpu\libg.a(lib_a-strcmp.o)
 .text          0x00000000        0x0 c:/gcc_arm/49/bin/../lib/gcc/arm-none-eabi/4.9.3/../../../../arm-none-eabi/lib/armv7e-m/fpu\libg.a(lib_a-svfiprintf.o)
 .data          0x00000000        0x0 c:/gcc_arm/49/bin/../lib/gcc/arm-none-eabi/4.9.3/../../../../arm-none-eabi/lib/armv7e-m/fpu\libg.a(lib_a-svfiprintf.o)
 .bss           0x00000000        0x0 c:/gcc_arm/49/bin/../lib/gcc/arm-none-eabi/4.9.3/../../../../arm-none-eabi/lib/armv7e-m/fpu\libg.a(lib_a-svfiprintf.o)
 .text._svfiprintf_r
                0x00000000      0xaa0 c:/gcc_arm/49/bin/../lib/gcc/arm-none-eabi/4.9.3/../../../../arm-none-eabi/lib/armv7e-m/fpu\libg.a(lib_a-svfiprintf.o)
 .rodata.blanks.6854
                0x00000000       0x10 c:/gcc_arm/49/bin/../lib/gcc/arm-none-eabi/4.9.3/../../../../arm-none-eabi/lib/armv7e-m/fpu\libg.a(lib_a-svfiprintf.o)
 .rodata.str1.4
                0x00000000       0x2f c:/gcc_arm/49/bin/../lib/gcc/arm-none-eabi/4.9.3/../../../../arm-none-eabi/lib/armv7e-m/fpu\libg.a(lib_a-svfiprintf.o)
 .rodata.zeroes.6855
                0x00000000       0x10 c:/gcc_arm/49/bin/../lib/gcc/arm-none-eabi/4.9.3/../../../../arm-none-eabi/lib/armv7e-m/fpu\libg.a(lib_a-svfiprintf.o)
 .text          0x00000000        0x0 c:/gcc_arm/49/bin/../lib/gcc/arm-none-eabi/4.9.3/../../../../arm-none-eabi/lib/armv7e-m/fpu\libg.a(lib_a-vfiprintf.o)
 .data          0x00000000        0x0 c:/gcc_arm/49/bin/../lib/gcc/arm-none-eabi/4.9.3/../../../../arm-none-eabi/lib/armv7e-m/fpu\libg.a(lib_a-vfiprintf.o)
 .bss           0x00000000        0x0 c:/gcc_arm/49/bin/../lib/gcc/arm-none-eabi/4.9.3/../../../../arm-none-eabi/lib/armv7e-m/fpu\libg.a(lib_a-vfiprintf.o)
 .text._vfiprintf_r
                0x00000000      0xc10 c:/gcc_arm/49/bin/../lib/gcc/arm-none-eabi/4.9.3/../../../../arm-none-eabi/lib/armv7e-m/fpu\libg.a(lib_a-vfiprintf.o)
 .text.vfiprintf
                0x00000000       0x18 c:/gcc_arm/49/bin/../lib/gcc/arm-none-eabi/4.9.3/../../../../arm-none-eabi/lib/armv7e-m/fpu\libg.a(lib_a-vfiprintf.o)
 .text.__sbprintf
                0x00000000       0x78 c:/gcc_arm/49/bin/../lib/gcc/arm-none-eabi/4.9.3/../../../../arm-none-eabi/lib/armv7e-m/fpu\libg.a(lib_a-vfiprintf.o)
 .rodata.zeroes.6869
                0x00000000       0x10 c:/gcc_arm/49/bin/../lib/gcc/arm-none-eabi/4.9.3/../../../../arm-none-eabi/lib/armv7e-m/fpu\libg.a(lib_a-vfiprintf.o)
 .rodata.str1.4
                0x00000000       0x2f c:/gcc_arm/49/bin/../lib/gcc/arm-none-eabi/4.9.3/../../../../arm-none-eabi/lib/armv7e-m/fpu\libg.a(lib_a-vfiprintf.o)
 .rodata.blanks.6868
                0x00000000       0x10 c:/gcc_arm/49/bin/../lib/gcc/arm-none-eabi/4.9.3/../../../../arm-none-eabi/lib/armv7e-m/fpu\libg.a(lib_a-vfiprintf.o)
 .text          0x00000000        0x0 c:/gcc_arm/49/bin/../lib/gcc/arm-none-eabi/4.9.3/../../../../arm-none-eabi/lib/armv7e-m/fpu\libg.a(lib_a-wbuf.o)
 .data          0x00000000        0x0 c:/gcc_arm/49/bin/../lib/gcc/arm-none-eabi/4.9.3/../../../../arm-none-eabi/lib/armv7e-m/fpu\libg.a(lib_a-wbuf.o)
 .bss           0x00000000        0x0 c:/gcc_arm/49/bin/../lib/gcc/arm-none-eabi/4.9.3/../../../../arm-none-eabi/lib/armv7e-m/fpu\libg.a(lib_a-wbuf.o)
 .text.__swbuf  0x00000000       0x10 c:/gcc_arm/49/bin/../lib/gcc/arm-none-eabi/4.9.3/../../../../arm-none-eabi/lib/armv7e-m/fpu\libg.a(lib_a-wbuf.o)
 .text          0x00000000        0x0 c:/gcc_arm/49/bin/../lib/gcc/arm-none-eabi/4.9.3/../../../../arm-none-eabi/lib/armv7e-m/fpu\libg.a(lib_a-writer.o)
 .data          0x00000000        0x0 c:/gcc_arm/49/bin/../lib/gcc/arm-none-eabi/4.9.3/../../../../arm-none-eabi/lib/armv7e-m/fpu\libg.a(lib_a-writer.o)
 .bss           0x00000000        0x0 c:/gcc_arm/49/bin/../lib/gcc/arm-none-eabi/4.9.3/../../../../arm-none-eabi/lib/armv7e-m/fpu\libg.a(lib_a-writer.o)
 .text          0x00000000        0x0 c:/gcc_arm/49/bin/../lib/gcc/arm-none-eabi/4.9.3/../../../../arm-none-eabi/lib/armv7e-m/fpu\libg.a(lib_a-callocr.o)
 .data          0x00000000        0x0 c:/gcc_arm/49/bin/../lib/gcc/arm-none-eabi/4.9.3/../../../../arm-none-eabi/lib/armv7e-m/fpu\libg.a(lib_a-callocr.o)
 .bss           0x00000000        0x0 c:/gcc_arm/49/bin/../lib/gcc/arm-none-eabi/4.9.3/../../../../arm-none-eabi/lib/armv7e-m/fpu\libg.a(lib_a-callocr.o)
 .text          0x00000000        0x0 c:/gcc_arm/49/bin/../lib/gcc/arm-none-eabi/4.9.3/../../../../arm-none-eabi/lib/armv7e-m/fpu\libg.a(lib_a-closer.o)
 .data          0x00000000        0x0 c:/gcc_arm/49/bin/../lib/gcc/arm-none-eabi/4.9.3/../../../../arm-none-eabi/lib/armv7e-m/fpu\libg.a(lib_a-closer.o)
 .bss           0x00000000        0x0 c:/gcc_arm/49/bin/../lib/gcc/arm-none-eabi/4.9.3/../../../../arm-none-eabi/lib/armv7e-m/fpu\libg.a(lib_a-closer.o)
 .text          0x00000000        0x0 c:/gcc_arm/49/bin/../lib/gcc/arm-none-eabi/4.9.3/../../../../arm-none-eabi/lib/armv7e-m/fpu\libg.a(lib_a-fclose.o)
 .data          0x00000000        0x0 c:/gcc_arm/49/bin/../lib/gcc/arm-none-eabi/4.9.3/../../../../arm-none-eabi/lib/armv7e-m/fpu\libg.a(lib_a-fclose.o)
 .bss           0x00000000        0x0 c:/gcc_arm/49/bin/../lib/gcc/arm-none-eabi/4.9.3/../../../../arm-none-eabi/lib/armv7e-m/fpu\libg.a(lib_a-fclose.o)
 .text.fclose   0x00000000       0x10 c:/gcc_arm/49/bin/../lib/gcc/arm-none-eabi/4.9.3/../../../../arm-none-eabi/lib/armv7e-m/fpu\libg.a(lib_a-fclose.o)
 .text          0x00000000        0x0 c:/gcc_arm/49/bin/../lib/gcc/arm-none-eabi/4.9.3/../../../../arm-none-eabi/lib/armv7e-m/fpu\libg.a(lib_a-fputwc.o)
 .data          0x00000000        0x0 c:/gcc_arm/49/bin/../lib/gcc/arm-none-eabi/4.9.3/../../../../arm-none-eabi/lib/armv7e-m/fpu\libg.a(lib_a-fputwc.o)
 .bss           0x00000000        0x0 c:/gcc_arm/49/bin/../lib/gcc/arm-none-eabi/4.9.3/../../../../arm-none-eabi/lib/armv7e-m/fpu\libg.a(lib_a-fputwc.o)
 .text.fputwc   0x00000000       0x28 c:/gcc_arm/49/bin/../lib/gcc/arm-none-eabi/4.9.3/../../../../arm-none-eabi/lib/armv7e-m/fpu\libg.a(lib_a-fputwc.o)
 .text          0x00000000        0x0 c:/gcc_arm/49/bin/../lib/gcc/arm-none-eabi/4.9.3/../../../../arm-none-eabi/lib/armv7e-m/fpu\libg.a(lib_a-fstatr.o)
 .data          0x00000000        0x0 c:/gcc_arm/49/bin/../lib/gcc/arm-none-eabi/4.9.3/../../../../arm-none-eabi/lib/armv7e-m/fpu\libg.a(lib_a-fstatr.o)
 .bss           0x00000000        0x0 c:/gcc_arm/49/bin/../lib/gcc/arm-none-eabi/4.9.3/../../../../arm-none-eabi/lib/armv7e-m/fpu\libg.a(lib_a-fstatr.o)
 .text          0x00000000        0x0 c:/gcc_arm/49/bin/../lib/gcc/arm-none-eabi/4.9.3/../../../../arm-none-eabi/lib/armv7e-m/fpu\libg.a(lib_a-isattyr.o)
 .data          0x00000000        0x0 c:/gcc_arm/49/bin/../lib/gcc/arm-none-eabi/4.9.3/../../../../arm-none-eabi/lib/armv7e-m/fpu\libg.a(lib_a-isattyr.o)
 .bss           0x00000000        0x0 c:/gcc_arm/49/bin/../lib/gcc/arm-none-eabi/4.9.3/../../../../arm-none-eabi/lib/armv7e-m/fpu\libg.a(lib_a-isattyr.o)
 .text          0x00000000        0x0 c:/gcc_arm/49/bin/../lib/gcc/arm-none-eabi/4.9.3/../../../../arm-none-eabi/lib/armv7e-m/fpu\libg.a(lib_a-lseekr.o)
 .data          0x00000000        0x0 c:/gcc_arm/49/bin/../lib/gcc/arm-none-eabi/4.9.3/../../../../arm-none-eabi/lib/armv7e-m/fpu\libg.a(lib_a-lseekr.o)
 .bss           0x00000000        0x0 c:/gcc_arm/49/bin/../lib/gcc/arm-none-eabi/4.9.3/../../../../arm-none-eabi/lib/armv7e-m/fpu\libg.a(lib_a-lseekr.o)
 .text          0x00000000        0x0 c:/gcc_arm/49/bin/../lib/gcc/arm-none-eabi/4.9.3/../../../../arm-none-eabi/lib/armv7e-m/fpu\libg.a(lib_a-readr.o)
 .data          0x00000000        0x0 c:/gcc_arm/49/bin/../lib/gcc/arm-none-eabi/4.9.3/../../../../arm-none-eabi/lib/armv7e-m/fpu\libg.a(lib_a-readr.o)
 .bss           0x00000000        0x0 c:/gcc_arm/49/bin/../lib/gcc/arm-none-eabi/4.9.3/../../../../arm-none-eabi/lib/armv7e-m/fpu\libg.a(lib_a-readr.o)
 .text          0x00000000        0x0 c:/gcc_arm/49/bin/../lib/gcc/arm-none-eabi/4.9.3/../../../../arm-none-eabi/lib/armv7e-m/fpu\libg.a(lib_a-wcrtomb.o)
 .data          0x00000000        0x0 c:/gcc_arm/49/bin/../lib/gcc/arm-none-eabi/4.9.3/../../../../arm-none-eabi/lib/armv7e-m/fpu\libg.a(lib_a-wcrtomb.o)
 .bss           0x00000000        0x0 c:/gcc_arm/49/bin/../lib/gcc/arm-none-eabi/4.9.3/../../../../arm-none-eabi/lib/armv7e-m/fpu\libg.a(lib_a-wcrtomb.o)
 .text.wcrtomb  0x00000000       0x58 c:/gcc_arm/49/bin/../lib/gcc/arm-none-eabi/4.9.3/../../../../arm-none-eabi/lib/armv7e-m/fpu\libg.a(lib_a-wcrtomb.o)
 .text          0x00000000        0x0 c:/gcc_arm/49/bin/../lib/gcc/arm-none-eabi/4.9.3/../../../../arm-none-eabi/lib/armv7e-m/fpu\libg.a(lib_a-wctomb_r.o)
 .data          0x00000000        0x0 c:/gcc_arm/49/bin/../lib/gcc/arm-none-eabi/4.9.3/../../../../arm-none-eabi/lib/armv7e-m/fpu\libg.a(lib_a-wctomb_r.o)
 .bss           0x00000000        0x0 c:/gcc_arm/49/bin/../lib/gcc/arm-none-eabi/4.9.3/../../../../arm-none-eabi/lib/armv7e-m/fpu\libg.a(lib_a-wctomb_r.o)
 .text._wctomb_r
                0x00000000       0x30 c:/gcc_arm/49/bin/../lib/gcc/arm-none-eabi/4.9.3/../../../../arm-none-eabi/lib/armv7e-m/fpu\libg.a(lib_a-wctomb_r.o)
 .data          0x00000000        0x0 c:/gcc_arm/49/bin/../lib/gcc/arm-none-eabi/4.9.3/armv7e-m/fpu\libgcc.a(_aeabi_uldivmod.o)
 .bss           0x00000000        0x0 c:/gcc_arm/49/bin/../lib/gcc/arm-none-eabi/4.9.3/armv7e-m/fpu\libgcc.a(_aeabi_uldivmod.o)
 .data          0x00000000        0x0 c:/gcc_arm/49/bin/../lib/gcc/arm-none-eabi/4.9.3/armv7e-m/fpu\libgcc.a(bpabi.o)
 .bss           0x00000000        0x0 c:/gcc_arm/49/bin/../lib/gcc/arm-none-eabi/4.9.3/armv7e-m/fpu\libgcc.a(bpabi.o)
 .data          0x00000000        0x0 c:/gcc_arm/49/bin/../lib/gcc/arm-none-eabi/4.9.3/armv7e-m/fpu\libgcc.a(_dvmd_tls.o)
 .bss           0x00000000        0x0 c:/gcc_arm/49/bin/../lib/gcc/arm-none-eabi/4.9.3/armv7e-m/fpu\libgcc.a(_dvmd_tls.o)
 .data          0x00000000        0x0 c:/gcc_arm/49/bin/../lib/gcc/arm-none-eabi/4.9.3/armv7e-m/fpu\libgcc.a(_divdi3.o)
 .bss           0x00000000        0x0 c:/gcc_arm/49/bin/../lib/gcc/arm-none-eabi/4.9.3/armv7e-m/fpu\libgcc.a(_divdi3.o)
 .ARM.extab     0x00000000        0x0 c:/gcc_arm/49/bin/../lib/gcc/arm-none-eabi/4.9.3/armv7e-m/fpu\libgcc.a(_divdi3.o)
 .data          0x00000000        0x0 c:/gcc_arm/49/bin/../lib/gcc/arm-none-eabi/4.9.3/armv7e-m/fpu\libgcc.a(_udivdi3.o)
 .bss           0x00000000        0x0 c:/gcc_arm/49/bin/../lib/gcc/arm-none-eabi/4.9.3/armv7e-m/fpu\libgcc.a(_udivdi3.o)
 .ARM.extab     0x00000000        0x0 c:/gcc_arm/49/bin/../lib/gcc/arm-none-eabi/4.9.3/armv7e-m/fpu\libgcc.a(_udivdi3.o)

Memory Configuration

Name             Origin             Length             Attributes
rom              0x08000000         0x00100000         xr
ram              0x20000000         0x00020000         xrw
ram1             0x10000000         0x00010000         xrw
*default*        0x00000000         0xffffffff

Linker script and memory map

                0x20020000                _eram = 0x20020000

.text           0x08000000    0x1b5a0
 *(.isr_vector)
 .isr_vector    0x08000000      0x188 ..\obj\startup_stm32f4xx.o
                0x08000000                g_pfnVectors
 *(.text*)
 .text.SYSCFG_ETH_MediaInterfaceConfig
                0x08000188       0x1c ..\obj\stm32f4xx_syscfg.o
                0x08000188                SYSCFG_ETH_MediaInterfaceConfig
 .text.plug_holes
                0x080001a4       0xbc ..\obj\mem.o
 .text.mem_init
                0x08000260       0x84 ..\obj\mem.o
                0x08000260                mem_init
 .text.mem_free
                0x080002e4       0x64 ..\obj\mem.o
                0x080002e4                mem_free
 .text.mem_realloc
                0x08000348      0x17c ..\obj\mem.o
                0x08000348                mem_realloc
 .text.mem_malloc
                0x080004c4      0x14c ..\obj\mem.o
                0x080004c4                mem_malloc
 .text.Delayms  0x08000610       0x58 ..\obj\udp_echoclient.o
 .text.input_power
                0x08000668      0x114 ..\obj\udp_echoclient.o
                0x08000668                input_power
 .text.udp_echoserver_initWithPort
                0x0800077c       0x60 ..\obj\udp_echoclient.o
                0x0800077c                udp_echoserver_initWithPort
 .text.udp_echoserver_receive_callback
                0x080007dc       0x38 ..\obj\udp_echoclient.o
                0x080007dc                udp_echoserver_receive_callback
 .text.sendToServer
                0x08000814       0xc0 ..\obj\udp_echoclient.o
                0x08000814                sendToServer
 .text.Send_Data
                0x080008d4      0x494 ..\obj\udp_echoclient.o
                0x080008d4                Send_Data
 .text.ethernetSendString
                0x08000d68       0xec ..\obj\udp_echoclient.o
                0x08000d68                ethernetSendString
 .text.cmdlineInit
                0x08000e54       0x40 ..\obj\cmdline.o
                0x08000e54                cmdlineInit
 .text.cmdlineAddCommand
                0x08000e94       0x48 ..\obj\cmdline.o
                0x08000e94                cmdlineAddCommand
 .text.cmdlineSetOutputFunc
                0x08000edc       0x1c ..\obj\cmdline.o
                0x08000edc                cmdlineSetOutputFunc
 .text.cmdlineInputFunc
                0x08000ef8      0x2c8 ..\obj\cmdline.o
                0x08000ef8                cmdlineInputFunc
 .text.cmdlineRepaint
                0x080011c0       0x98 ..\obj\cmdline.o
                0x080011c0                cmdlineRepaint
 .text.cmdlineDoHistory
                0x08001258       0x68 ..\obj\cmdline.o
                0x08001258                cmdlineDoHistory
 .text.cmdlineProcessInputString
                0x080012c0       0xb0 ..\obj\cmdline.o
                0x080012c0                cmdlineProcessInputString
 .text.cmdlineMainLoop
                0x08001370       0x24 ..\obj\cmdline.o
                0x08001370                cmdlineMainLoop
 .text.cmdlinePrintPrompt
                0x08001394       0x3c ..\obj\cmdline.o
                0x08001394                cmdlinePrintPrompt
 .text.cmdlinePrintError
                0x080013d0       0xd8 ..\obj\cmdline.o
                0x080013d0                cmdlinePrintError
 .text.cmdlineGetArgStr
                0x080014a8       0x8c ..\obj\cmdline.o
                0x080014a8                cmdlineGetArgStr
 .text.cmdlineGetArgInt
                0x08001534       0x2c ..\obj\cmdline.o
                0x08001534                cmdlineGetArgInt
 .text.tcp_close
                0x08001560      0x164 ..\obj\tcp.o
                0x08001560                tcp_close
 .text.tcp_abandon
                0x080016c4       0xe0 ..\obj\tcp.o
                0x080016c4                tcp_abandon
 .text.tcp_update_rcv_ann_wnd
                0x080017a4       0x84 ..\obj\tcp.o
                0x080017a4                tcp_update_rcv_ann_wnd
 .text.tcp_recved
                0x08001828       0x60 ..\obj\tcp.o
                0x08001828                tcp_recved
 .text.tcp_segs_free
                0x08001888       0x38 ..\obj\tcp.o
                0x08001888                tcp_segs_free
 .text.tcp_seg_free
                0x080018c0       0x3c ..\obj\tcp.o
                0x080018c0                tcp_seg_free
 .text.tcp_recv_null
                0x080018fc       0x48 ..\obj\tcp.o
                0x080018fc                tcp_recv_null
 .text.tcp_kill_prio
                0x08001944       0x80 ..\obj\tcp.o
 .text.tcp_kill_timewait
                0x080019c4       0x60 ..\obj\tcp.o
 .text.tcp_alloc
                0x08001a24      0x10c ..\obj\tcp.o
                0x08001a24                tcp_alloc
 .text.tcp_pcb_purge
                0x08001b30       0x60 ..\obj\tcp.o
                0x08001b30                tcp_pcb_purge
 .text.tcp_pcb_remove
                0x08001b90       0xac ..\obj\tcp.o
                0x08001b90                tcp_pcb_remove
 .text.tcp_next_iss
                0x08001c3c       0x28 ..\obj\tcp.o
                0x08001c3c                tcp_next_iss
 .text.tcp_eff_send_mss
                0x08001c64       0x40 ..\obj\tcp.o
                0x08001c64                tcp_eff_send_mss
 .text.TM_USART_Putc
                0x08001ca4       0x50 ..\obj\gsm.o
 .text.GSM_Init
                0x08001cf4       0x6c ..\obj\gsm.o
                0x08001cf4                GSM_Init
 .text.GSM_requestModem
                0x08001d60       0xb8 ..\obj\gsm.o
                0x08001d60                GSM_requestModem
 .text.GSM_requestModemWaitAnswer
                0x08001e18       0xac ..\obj\gsm.o
                0x08001e18                GSM_requestModemWaitAnswer
 .text.GSM_getsTimeout
                0x08001ec4       0x98 ..\obj\gsm.o
                0x08001ec4                GSM_getsTimeout
 .text.GSM_sendSMS
                0x08001f5c       0xf4 ..\obj\gsm.o
                0x08001f5c                GSM_sendSMS
 .text.GSM_checkNetwork_Simple
                0x08002050       0x54 ..\obj\gsm.o
                0x08002050                GSM_checkNetwork_Simple
 .text.GSM_isRegistered
                0x080020a4       0x24 ..\obj\gsm.o
                0x080020a4                GSM_isRegistered
 .text.EXTI0_IRQHandler
                0x080020c8       0x24 ..\obj\tm_stm32f4_exti.o
                0x080020c8                EXTI0_IRQHandler
 .text.EXTI1_IRQHandler
                0x080020ec       0x24 ..\obj\tm_stm32f4_exti.o
                0x080020ec                EXTI1_IRQHandler
 .text.EXTI2_IRQHandler
                0x08002110       0x24 ..\obj\tm_stm32f4_exti.o
                0x08002110                EXTI2_IRQHandler
 .text.EXTI3_IRQHandler
                0x08002134       0x24 ..\obj\tm_stm32f4_exti.o
                0x08002134                EXTI3_IRQHandler
 .text.EXTI4_IRQHandler
                0x08002158       0x24 ..\obj\tm_stm32f4_exti.o
                0x08002158                EXTI4_IRQHandler
 .text.EXTI9_5_IRQHandler
                0x0800217c       0x8c ..\obj\tm_stm32f4_exti.o
                0x0800217c                EXTI9_5_IRQHandler
 .text.EXTI15_10_IRQHandler
                0x08002208       0xb4 ..\obj\tm_stm32f4_exti.o
                0x08002208                EXTI15_10_IRQHandler
 .text.INA219_begin
                0x080022bc       0x34 ..\obj\INA219.o
                0x080022bc                INA219_begin
 .text.INA219_configure
                0x080022f0       0xe0 ..\obj\INA219.o
                0x080022f0                INA219_configure
 .text.INA219_calibrate
                0x080023d0      0x164 ..\obj\INA219.o
                0x080023d0                INA219_calibrate
 .text.INA219_readBusPower
                0x08002534       0x28 ..\obj\INA219.o
                0x08002534                INA219_readBusPower
 .text.INA219_readShuntCurrent
                0x0800255c       0x28 ..\obj\INA219.o
                0x0800255c                INA219_readShuntCurrent
 *fill*         0x08002584        0x4 
 .text.INA219_readBusVoltage
                0x08002588       0x58 ..\obj\INA219.o
                0x08002588                INA219_readBusVoltage
 .text.readRegister16
                0x080025e0       0x44 ..\obj\INA219.o
                0x080025e0                readRegister16
 .text.writeRegister16
                0x08002624       0x44 ..\obj\INA219.o
                0x08002624                writeRegister16
 .text.TM_BKPSRAM_Init
                0x08002668       0x40 ..\obj\tm_stm32f4_bkpsram.o
                0x08002668                TM_BKPSRAM_Init
 .text.tcp_input
                0x080026a8      0x5d0 ..\obj\tcp_in.o
                0x080026a8                tcp_input
 .text.tcp_listen_input
                0x08002c78      0x1a4 ..\obj\tcp_in.o
 .text.tcp_timewait_input
                0x08002e1c       0xe8 ..\obj\tcp_in.o
 .text.tcp_process
                0x08002f04      0x6cc ..\obj\tcp_in.o
 .text.tcp_receive
                0x080035d0      0x8c4 ..\obj\tcp_in.o
 .text.tcp_parseopt
                0x08003e94      0x104 ..\obj\tcp_in.o
 .text.USART_DeInit
                0x08003f98      0x114 ..\obj\stm32f4xx_usart.o
                0x08003f98                USART_DeInit
 .text.USART_Init
                0x080040ac      0x178 ..\obj\stm32f4xx_usart.o
                0x080040ac                USART_Init
 .text.USART_SendData
                0x08004224       0x24 ..\obj\stm32f4xx_usart.o
                0x08004224                USART_SendData
 .text.USART_GetFlagStatus
                0x08004248       0x38 ..\obj\stm32f4xx_usart.o
                0x08004248                USART_GetFlagStatus
 .text.PWR_BackupAccessCmd
                0x08004280       0x20 ..\obj\stm32f4xx_pwr.o
                0x08004280                PWR_BackupAccessCmd
 .text.PWR_BackupRegulatorCmd
                0x080042a0       0x20 ..\obj\stm32f4xx_pwr.o
                0x080042a0                PWR_BackupRegulatorCmd
 .text.PWR_EnterSTANDBYMode
                0x080042c0       0x30 ..\obj\stm32f4xx_pwr.o
                0x080042c0                PWR_EnterSTANDBYMode
 .text.PWR_ClearFlag
                0x080042f0       0x24 ..\obj\stm32f4xx_pwr.o
                0x080042f0                PWR_ClearFlag
 .text.memp_init
                0x08004314       0x98 ..\obj\memp.o
                0x08004314                memp_init
 .text.memp_malloc
                0x080043ac       0x44 ..\obj\memp.o
                0x080043ac                memp_malloc
 .text.memp_free
                0x080043f0       0x3c ..\obj\memp.o
                0x080043f0                memp_free
 .text.autoip_handle_arp_conflict
                0x0800442c       0x40 ..\obj\autoip.o
 .text.autoip_create_addr
                0x0800446c       0x8c ..\obj\autoip.o
 .text.autoip_arp_announce
                0x080044f8       0x4c ..\obj\autoip.o
 .text.autoip_start
                0x08004544       0xac ..\obj\autoip.o
                0x08004544                autoip_start
 .text.autoip_start_probing
                0x080045f0       0x88 ..\obj\autoip.o
 .text.autoip_arp_reply
                0x08004678       0xec ..\obj\autoip.o
                0x08004678                autoip_arp_reply
 .text.TM_ADC_Init
                0x08004764       0xfc ..\obj\tm_stm32f4_adc.o
                0x08004764                TM_ADC_Init
 .text.TM_ADC_InitADC
                0x08004860       0xbc ..\obj\tm_stm32f4_adc.o
                0x08004860                TM_ADC_InitADC
 .text.TM_ADC_Read
                0x0800491c       0x58 ..\obj\tm_stm32f4_adc.o
                0x0800491c                TM_ADC_Read
 .text.TM_ADC_INT_Channel_0_Init
                0x08004974       0x1c ..\obj\tm_stm32f4_adc.o
                0x08004974                TM_ADC_INT_Channel_0_Init
 .text.TM_ADC_INT_Channel_1_Init
                0x08004990       0x1c ..\obj\tm_stm32f4_adc.o
                0x08004990                TM_ADC_INT_Channel_1_Init
 .text.TM_ADC_INT_Channel_2_Init
                0x080049ac       0x1c ..\obj\tm_stm32f4_adc.o
                0x080049ac                TM_ADC_INT_Channel_2_Init
 .text.TM_ADC_INT_Channel_3_Init
                0x080049c8       0x1c ..\obj\tm_stm32f4_adc.o
                0x080049c8                TM_ADC_INT_Channel_3_Init
 .text.TM_ADC_INT_Channel_4_Init
                0x080049e4       0x4c ..\obj\tm_stm32f4_adc.o
                0x080049e4                TM_ADC_INT_Channel_4_Init
 .text.TM_ADC_INT_Channel_5_Init
                0x08004a30       0x4c ..\obj\tm_stm32f4_adc.o
                0x08004a30                TM_ADC_INT_Channel_5_Init
 .text.TM_ADC_INT_Channel_6_Init
                0x08004a7c       0x4c ..\obj\tm_stm32f4_adc.o
                0x08004a7c                TM_ADC_INT_Channel_6_Init
 .text.TM_ADC_INT_Channel_7_Init
                0x08004ac8       0x4c ..\obj\tm_stm32f4_adc.o
                0x08004ac8                TM_ADC_INT_Channel_7_Init
 .text.TM_ADC_INT_Channel_8_Init
                0x08004b14       0x4c ..\obj\tm_stm32f4_adc.o
                0x08004b14                TM_ADC_INT_Channel_8_Init
 .text.TM_ADC_INT_Channel_9_Init
                0x08004b60       0x4c ..\obj\tm_stm32f4_adc.o
                0x08004b60                TM_ADC_INT_Channel_9_Init
 .text.TM_ADC_INT_Channel_10_Init
                0x08004bac       0x1c ..\obj\tm_stm32f4_adc.o
                0x08004bac                TM_ADC_INT_Channel_10_Init
 .text.TM_ADC_INT_Channel_11_Init
                0x08004bc8       0x1c ..\obj\tm_stm32f4_adc.o
                0x08004bc8                TM_ADC_INT_Channel_11_Init
 .text.TM_ADC_INT_Channel_12_Init
                0x08004be4       0x1c ..\obj\tm_stm32f4_adc.o
                0x08004be4                TM_ADC_INT_Channel_12_Init
 .text.TM_ADC_INT_Channel_13_Init
                0x08004c00       0x1c ..\obj\tm_stm32f4_adc.o
                0x08004c00                TM_ADC_INT_Channel_13_Init
 .text.TM_ADC_INT_Channel_14_Init
                0x08004c1c       0x4c ..\obj\tm_stm32f4_adc.o
                0x08004c1c                TM_ADC_INT_Channel_14_Init
 .text.TM_ADC_INT_Channel_15_Init
                0x08004c68       0x4c ..\obj\tm_stm32f4_adc.o
                0x08004c68                TM_ADC_INT_Channel_15_Init
 .text.TM_ADC_INT_InitPin
                0x08004cb4       0x28 ..\obj\tm_stm32f4_adc.o
                0x08004cb4                TM_ADC_INT_InitPin
 .text.TM_GPS_Init
                0x08004cdc      0x120 ..\obj\tm_stm32f4_gps.o
                0x08004cdc                TM_GPS_Init
 .text.TM_GPS_Update
                0x08004dfc       0x74 ..\obj\tm_stm32f4_gps.o
                0x08004dfc                TM_GPS_Update
 .text.TM_GPS_INT_Do
                0x08004e70      0x1cc ..\obj\tm_stm32f4_gps.o
                0x08004e70                TM_GPS_INT_Do
 .text.TM_GPS_INT_CheckTerm
                0x0800503c      0xd5c ..\obj\tm_stm32f4_gps.o
                0x0800503c                TM_GPS_INT_CheckTerm
 .text.TM_GPS_INT_Return
                0x08005d98      0x14c ..\obj\tm_stm32f4_gps.o
                0x08005d98                TM_GPS_INT_Return
 .text.TM_GPS_INT_StringStartsWith
                0x08005ee4       0x3c ..\obj\tm_stm32f4_gps.o
                0x08005ee4                TM_GPS_INT_StringStartsWith
 .text.TM_GPS_INT_Atoi
                0x08005f20       0x5c ..\obj\tm_stm32f4_gps.o
                0x08005f20                TM_GPS_INT_Atoi
 .text.TM_GPS_INT_Pow
                0x08005f7c       0x38 ..\obj\tm_stm32f4_gps.o
                0x08005f7c                TM_GPS_INT_Pow
 .text.TM_GPS_INT_Hex2Dec
                0x08005fb4       0x54 ..\obj\tm_stm32f4_gps.o
                0x08005fb4                TM_GPS_INT_Hex2Dec
 .text.TM_GPS_INT_FlagsOk
                0x08006008       0x5c ..\obj\tm_stm32f4_gps.o
                0x08006008                TM_GPS_INT_FlagsOk
 .text.TM_GPS_INT_ClearFlags
                0x08006064       0x44 ..\obj\tm_stm32f4_gps.o
                0x08006064                TM_GPS_INT_ClearFlags
 .text.TM_GPS_INT_CheckEmpty
                0x080060a8      0x2d0 ..\obj\tm_stm32f4_gps.o
                0x080060a8                TM_GPS_INT_CheckEmpty
 .text.ip_reass_free_complete_datagram
                0x08006378       0xbc ..\obj\ip_frag.o
 .text.ip_reass_remove_oldest_datagram
                0x08006434       0xb8 ..\obj\ip_frag.o
 .text.ip_reass_enqueue_new_datagram
                0x080064ec       0x74 ..\obj\ip_frag.o
 .text.ip_reass_dequeue_datagram
                0x08006560       0x38 ..\obj\ip_frag.o
 .text.ip_reass_chain_frag_into_datagram_and_validate
                0x08006598      0x210 ..\obj\ip_frag.o
 .text.ip_reass
                0x080067a8      0x268 ..\obj\ip_frag.o
                0x080067a8                ip_reass
 .text.ip_frag  0x08006a10      0x1a4 ..\obj\ip_frag.o
                0x08006a10                ip_frag
 .text.SFP_Read
                0x08006bb4      0x4b8 ..\obj\sfp.o
                0x08006bb4                SFP_Read
 .text.SFP_DOM_Reading_Update
                0x0800706c       0x1c ..\obj\sfp.o
                0x0800706c                SFP_DOM_Reading_Update
 .text.SFP_DOM_Conv_u16
                0x08007088       0x60 ..\obj\sfp.o
                0x08007088                SFP_DOM_Conv_u16
 .text.SFP_DOM_Conv_float
                0x080070e8      0x194 ..\obj\sfp.o
                0x080070e8                SFP_DOM_Conv_float
 .text.mw_2_dbm
                0x0800727c       0x28 ..\obj\sfp.o
                0x0800727c                mw_2_dbm
 .text.Default_Reset_Handler
                0x080072a4       0x68 ..\obj\startup_stm32f4xx.o
                0x080072a4                Default_Reset_Handler
                0x080072a4                Reset_Handler
 .text.Default_Handler
                0x0800730c        0x8 ..\obj\startup_stm32f4xx.o
                0x0800730c                HASH_RNG_IRQHandler
                0x0800730c                TIM8_CC_IRQHandler
                0x0800730c                DebugMon_Handler
                0x0800730c                TIM1_CC_IRQHandler
                0x0800730c                DMA2_Stream5_IRQHandler
                0x0800730c                DMA1_Stream5_IRQHandler
                0x0800730c                PVD_IRQHandler
                0x0800730c                SDIO_IRQHandler
                0x0800730c                TAMP_STAMP_IRQHandler
                0x0800730c                PendSV_Handler
                0x0800730c                NMI_Handler
                0x0800730c                CAN2_RX1_IRQHandler
                0x0800730c                TIM8_TRG_COM_TIM14_IRQHandler
                0x0800730c                TIM1_UP_TIM10_IRQHandler
                0x0800730c                TIM8_UP_TIM13_IRQHandler
                0x0800730c                I2C3_ER_IRQHandler
                0x0800730c                I2C2_EV_IRQHandler
                0x0800730c                DMA1_Stream2_IRQHandler
                0x0800730c                CAN1_RX0_IRQHandler
                0x0800730c                FPU_IRQHandler
                0x0800730c                OTG_HS_WKUP_IRQHandler
                0x0800730c                UsageFault_Handler
                0x0800730c                CAN2_SCE_IRQHandler
                0x0800730c                DMA2_Stream2_IRQHandler
                0x0800730c                SPI1_IRQHandler
                0x0800730c                TIM6_DAC_IRQHandler
                0x0800730c                TIM1_BRK_TIM9_IRQHandler
                0x0800730c                DCMI_IRQHandler
                0x0800730c                CAN2_RX0_IRQHandler
                0x0800730c                DMA2_Stream3_IRQHandler
                0x0800730c                CRYP_IRQHandler
                0x0800730c                CAN1_RX1_IRQHandler
                0x0800730c                DMA2_Stream0_IRQHandler
                0x0800730c                TIM4_IRQHandler
                0x0800730c                I2C1_EV_IRQHandler
                0x0800730c                DMA1_Stream6_IRQHandler
                0x0800730c                DMA1_Stream1_IRQHandler
                0x0800730c                TIM3_IRQHandler
                0x0800730c                RCC_IRQHandler
                0x0800730c                TIM8_BRK_TIM12_IRQHandler
                0x0800730c                ADC_IRQHandler
                0x0800730c                DMA1_Stream7_IRQHandler
                0x0800730c                TIM7_IRQHandler
                0x0800730c                CAN2_TX_IRQHandler
                0x0800730c                TIM5_IRQHandler
                0x0800730c                DMA2_Stream7_IRQHandler
                0x0800730c                I2C3_EV_IRQHandler
                0x0800730c                ETH_WKUP_IRQHandler
                0x0800730c                SPI2_IRQHandler
                0x0800730c                OTG_HS_EP1_IN_IRQHandler
                0x0800730c                MemManage_Handler
                0x0800730c                DMA1_Stream0_IRQHandler
                0x0800730c                CAN1_TX_IRQHandler
                0x0800730c                SVC_Handler
                0x0800730c                FSMC_IRQHandler
                0x0800730c                ETH_IRQHandler
                0x0800730c                OTG_HS_EP1_OUT_IRQHandler
                0x0800730c                WWDG_IRQHandler
                0x0800730c                OTG_FS_WKUP_IRQHandler
                0x0800730c                TIM1_TRG_COM_TIM11_IRQHandler
                0x0800730c                OTG_HS_IRQHandler
                0x0800730c                I2C2_ER_IRQHandler
                0x0800730c                DMA2_Stream1_IRQHandler
                0x0800730c                CAN1_SCE_IRQHandler
                0x0800730c                FLASH_IRQHandler
                0x0800730c                DMA2_Stream4_IRQHandler
                0x0800730c                BusFault_Handler
                0x0800730c                OTG_FS_IRQHandler
                0x0800730c                SPI3_IRQHandler
                0x0800730c                DMA1_Stream4_IRQHandler
                0x0800730c                I2C1_ER_IRQHandler
                0x0800730c                DMA2_Stream6_IRQHandler
                0x0800730c                DMA1_Stream3_IRQHandler
 .text.ETH_Delay
                0x08007314       0x28 ..\obj\stm32f4x7_eth.o
 .text.ETH_DeInit
                0x0800733c       0x1c ..\obj\stm32f4x7_eth.o
                0x0800733c                ETH_DeInit
 .text.ETH_StructInit
                0x08007358      0x15c ..\obj\stm32f4x7_eth.o
                0x08007358                ETH_StructInit
 .text.ETH_Init
                0x080074b4      0x40c ..\obj\stm32f4x7_eth.o
                0x080074b4                ETH_Init
 .text.ETH_Start
                0x080078c0       0x24 ..\obj\stm32f4x7_eth.o
                0x080078c0                ETH_Start
 .text.ETH_MACTransmissionCmd
                0x080078e4       0x38 ..\obj\stm32f4x7_eth.o
                0x080078e4                ETH_MACTransmissionCmd
 .text.ETH_MACReceptionCmd
                0x0800791c       0x38 ..\obj\stm32f4x7_eth.o
                0x0800791c                ETH_MACReceptionCmd
 .text.ETH_MACAddressConfig
                0x08007954       0x6c ..\obj\stm32f4x7_eth.o
                0x08007954                ETH_MACAddressConfig
 .text.ETH_Get_Received_Frame
                0x080079c0       0x84 ..\obj\stm32f4x7_eth.o
                0x080079c0                ETH_Get_Received_Frame
 .text.ETH_Prepare_Transmit_Descriptors
                0x08007a44      0x16c ..\obj\stm32f4x7_eth.o
                0x08007a44                ETH_Prepare_Transmit_Descriptors
 .text.ETH_DMARxDescChainInit
                0x08007bb0       0xa8 ..\obj\stm32f4x7_eth.o
                0x08007bb0                ETH_DMARxDescChainInit
 .text.ETH_CheckFrameReceived
                0x08007c58       0xd4 ..\obj\stm32f4x7_eth.o
                0x08007c58                ETH_CheckFrameReceived
 .text.ETH_DMATxDescChainInit
                0x08007d2c       0x90 ..\obj\stm32f4x7_eth.o
                0x08007d2c                ETH_DMATxDescChainInit
 .text.ETH_DMATxDescChecksumInsertionConfig
                0x08007dbc       0x20 ..\obj\stm32f4x7_eth.o
                0x08007dbc                ETH_DMATxDescChecksumInsertionConfig
 .text.ETH_SoftwareReset
                0x08007ddc       0x24 ..\obj\stm32f4x7_eth.o
                0x08007ddc                ETH_SoftwareReset
 .text.ETH_GetSoftwareResetStatus
                0x08007e00       0x38 ..\obj\stm32f4x7_eth.o
                0x08007e00                ETH_GetSoftwareResetStatus
 .text.ETH_FlushTransmitFIFO
                0x08007e38       0x28 ..\obj\stm32f4x7_eth.o
                0x08007e38                ETH_FlushTransmitFIFO
 .text.ETH_DMATransmissionCmd
                0x08007e60       0x50 ..\obj\stm32f4x7_eth.o
                0x08007e60                ETH_DMATransmissionCmd
 .text.ETH_DMAReceptionCmd
                0x08007eb0       0x50 ..\obj\stm32f4x7_eth.o
                0x08007eb0                ETH_DMAReceptionCmd
 .text.ETH_ReadPHYRegister
                0x08007f00       0xa0 ..\obj\stm32f4x7_eth.o
                0x08007f00                ETH_ReadPHYRegister
 .text.ETH_WritePHYRegister
                0x08007fa0       0xa4 ..\obj\stm32f4x7_eth.o
                0x08007fa0                ETH_WritePHYRegister
 .text.ip_addr_isbroadcast
                0x08008044       0x7c ..\obj\ip_addr.o
                0x08008044                ip_addr_isbroadcast
 .text.lwip_standard_chksum
                0x080080c0       0x9c ..\obj\inet_chksum.o
 .text.inet_chksum_pseudo
                0x0800815c      0x10c ..\obj\inet_chksum.o
                0x0800815c                inet_chksum_pseudo
 .text.inet_chksum
                0x08008268       0x24 ..\obj\inet_chksum.o
                0x08008268                inet_chksum
 .text.inet_chksum_pbuf
                0x0800828c       0x98 ..\obj\inet_chksum.o
                0x0800828c                inet_chksum_pbuf
 .text.main     0x08008324       0xf8 ..\obj\main.o
                0x08008324                main
 .text.SysTick_Handler
                0x0800841c        0xc ..\obj\main.o
                0x0800841c                SysTick_Handler
 .text.BUTTON1_EventHandler
                0x08008428       0x1c ..\obj\main.o
                0x08008428                BUTTON1_EventHandler
 .text.HardFault_Handler
                0x08008444       0x10 ..\obj\main.o
                0x08008444                HardFault_Handler
 .text.TM_BUTTON_Init
                0x08008454       0xbc ..\obj\tm_stm32f4_button.o
                0x08008454                TM_BUTTON_Init
 .text.TM_BUTTON_Update
                0x08008510       0x34 ..\obj\tm_stm32f4_button.o
                0x08008510                TM_BUTTON_Update
 .text.TM_BUTTON_INT_CheckButton
                0x08008544       0xf8 ..\obj\tm_stm32f4_button.o
                0x08008544                TM_BUTTON_INT_CheckButton
 .text.RCC_DeInit
                0x0800863c       0x70 ..\obj\stm32f4xx_rcc.o
                0x0800863c                RCC_DeInit
 .text.RCC_LSEConfig
                0x080086ac       0x40 ..\obj\stm32f4xx_rcc.o
                0x080086ac                RCC_LSEConfig
 .text.RCC_LSICmd
                0x080086ec       0x20 ..\obj\stm32f4xx_rcc.o
                0x080086ec                RCC_LSICmd
 .text.RCC_GetClocksFreq
                0x0800870c      0x154 ..\obj\stm32f4xx_rcc.o
                0x0800870c                RCC_GetClocksFreq
 .text.RCC_RTCCLKConfig
                0x08008860       0x5c ..\obj\stm32f4xx_rcc.o
                0x08008860                RCC_RTCCLKConfig
 .text.RCC_RTCCLKCmd
                0x080088bc       0x20 ..\obj\stm32f4xx_rcc.o
                0x080088bc                RCC_RTCCLKCmd
 .text.RCC_AHB1PeriphClockCmd
                0x080088dc       0x3c ..\obj\stm32f4xx_rcc.o
                0x080088dc                RCC_AHB1PeriphClockCmd
 .text.RCC_APB1PeriphClockCmd
                0x08008918       0x3c ..\obj\stm32f4xx_rcc.o
                0x08008918                RCC_APB1PeriphClockCmd
 .text.RCC_APB2PeriphClockCmd
                0x08008954       0x3c ..\obj\stm32f4xx_rcc.o
                0x08008954                RCC_APB2PeriphClockCmd
 .text.RCC_AHB1PeriphResetCmd
                0x08008990       0x3c ..\obj\stm32f4xx_rcc.o
                0x08008990                RCC_AHB1PeriphResetCmd
 .text.RCC_APB1PeriphResetCmd
                0x080089cc       0x3c ..\obj\stm32f4xx_rcc.o
                0x080089cc                RCC_APB1PeriphResetCmd
 .text.RCC_APB2PeriphResetCmd
                0x08008a08       0x3c ..\obj\stm32f4xx_rcc.o
                0x08008a08                RCC_APB2PeriphResetCmd
 .text.RCC_GetFlagStatus
                0x08008a44       0x74 ..\obj\stm32f4xx_rcc.o
                0x08008a44                RCC_GetFlagStatus
 .text.LwIP_InitWithIP
                0x08008ab8      0x14c ..\obj\netconf.o
                0x08008ab8                LwIP_InitWithIP
 .text.LwIP_Pkt_Handle
                0x08008c04       0x10 ..\obj\netconf.o
                0x08008c04                LwIP_Pkt_Handle
 .text.TM_USART_Putc
                0x08008c14       0x50 ..\obj\cmdline_functions.o
 .text.Delay    0x08008c64       0x3c ..\obj\cmdline_functions.o
 .text.Delayms  0x08008ca0       0x58 ..\obj\cmdline_functions.o
 .text.Menu_Output
                0x08008cf8       0x20 ..\obj\cmdline_functions.o
                0x08008cf8                Menu_Output
 .text.Config_Menu
                0x08008d18       0x54 ..\obj\cmdline_functions.o
                0x08008d18                Config_Menu
 .text.help_descr
                0x08008d6c       0x9c ..\obj\cmdline_functions.o
                0x08008d6c                help_descr
 .text.Menu_Init
                0x08008e08      0x104 ..\obj\cmdline_functions.o
                0x08008e08                Menu_Init
 .text.show_ddmi
                0x08008f0c       0xbc ..\obj\cmdline_functions.o
                0x08008f0c                show_ddmi
 .text.show_temp_humidity
                0x08008fc8       0x90 ..\obj\cmdline_functions.o
                0x08008fc8                show_temp_humidity
 .text.show_sys
                0x08009058      0x11c ..\obj\cmdline_functions.o
                0x08009058                show_sys
 .text.gsm      0x08009174       0x98 ..\obj\cmdline_functions.o
                0x08009174                gsm
 .text.eth_test
                0x0800920c       0x10 ..\obj\cmdline_functions.o
                0x0800920c                eth_test
 .text.set_ID   0x0800921c       0x24 ..\obj\cmdline_functions.o
                0x0800921c                set_ID
 .text.set_LocalIP
                0x08009240       0x3c ..\obj\cmdline_functions.o
                0x08009240                set_LocalIP
 .text.set_RemoteIP
                0x0800927c       0x3c ..\obj\cmdline_functions.o
                0x0800927c                set_RemoteIP
 .text.set_MaskIP
                0x080092b8       0x2c ..\obj\cmdline_functions.o
                0x080092b8                set_MaskIP
 .text.set_Phone
                0x080092e4       0x7c ..\obj\cmdline_functions.o
                0x080092e4                set_Phone
 .text.set_GPS  0x08009360       0xb0 ..\obj\cmdline_functions.o
                0x08009360                set_GPS
 .text.setTime  0x08009410       0x84 ..\obj\cmdline_functions.o
                0x08009410                setTime
 .text.setDate  0x08009494       0x84 ..\obj\cmdline_functions.o
                0x08009494                setDate
 .text.InterlockToggle
                0x08009518       0x50 ..\obj\cmdline_functions.o
                0x08009518                InterlockToggle
 .text.show_ina
                0x08009568       0xb8 ..\obj\cmdline_functions.o
                0x08009568                show_ina
 .text.goSleep  0x08009620       0x54 ..\obj\cmdline_functions.o
                0x08009620                goSleep
 .text.bootloader
                0x08009674       0x58 ..\obj\cmdline_functions.o
                0x08009674                bootloader
 .text.TM_USART_Init
                0x080096cc      0x110 ..\obj\tm_stm32f4_usart.o
                0x080096cc                TM_USART_Init
 .text.TM_USART_Getc
                0x080097dc       0x74 ..\obj\tm_stm32f4_usart.o
                0x080097dc                TM_USART_Getc
 .text.TM_USART_BufferEmpty
                0x08009850       0x34 ..\obj\tm_stm32f4_usart.o
                0x08009850                TM_USART_BufferEmpty
 .text.TM_USART_Puts
                0x08009884       0x5c ..\obj\tm_stm32f4_usart.o
                0x08009884                TM_USART_Puts
 .text.TM_USART_INT_InsertToBuffer
                0x080098e0       0x5c ..\obj\tm_stm32f4_usart.o
                0x080098e0                TM_USART_INT_InsertToBuffer
 .text.TM_USART_InitCustomPinsCallback
                0x0800993c       0x18 ..\obj\tm_stm32f4_usart.o
                0x0800993c                TM_USART_InitCustomPinsCallback
 .text.TM_USART_INT_GetUsart
                0x08009954       0x90 ..\obj\tm_stm32f4_usart.o
                0x08009954                TM_USART_INT_GetUsart
 .text.TM_USART_INT_GetSubPriority
                0x080099e4       0x78 ..\obj\tm_stm32f4_usart.o
                0x080099e4                TM_USART_INT_GetSubPriority
 .text.TM_USART1_InitPins
                0x08009a5c       0x60 ..\obj\tm_stm32f4_usart.o
                0x08009a5c                TM_USART1_InitPins
 .text.TM_USART2_InitPins
                0x08009abc       0x60 ..\obj\tm_stm32f4_usart.o
                0x08009abc                TM_USART2_InitPins
 .text.TM_USART3_InitPins
                0x08009b1c       0x84 ..\obj\tm_stm32f4_usart.o
                0x08009b1c                TM_USART3_InitPins
 .text.TM_UART4_InitPins
                0x08009ba0       0x60 ..\obj\tm_stm32f4_usart.o
                0x08009ba0                TM_UART4_InitPins
 .text.TM_UART5_InitPins
                0x08009c00       0x5c ..\obj\tm_stm32f4_usart.o
                0x08009c00                TM_UART5_InitPins
 .text.TM_USART6_InitPins
                0x08009c5c       0x60 ..\obj\tm_stm32f4_usart.o
                0x08009c5c                TM_USART6_InitPins
 .text.USART1_IRQHandler
                0x08009cbc       0x2c ..\obj\tm_stm32f4_usart.o
                0x08009cbc                USART1_IRQHandler
 .text.USART2_IRQHandler
                0x08009ce8       0x2c ..\obj\tm_stm32f4_usart.o
                0x08009ce8                USART2_IRQHandler
 .text.USART3_IRQHandler
                0x08009d14       0x2c ..\obj\tm_stm32f4_usart.o
                0x08009d14                USART3_IRQHandler
 .text.UART4_IRQHandler
                0x08009d40       0x2c ..\obj\tm_stm32f4_usart.o
                0x08009d40                UART4_IRQHandler
 .text.UART5_IRQHandler
                0x08009d6c       0x2c ..\obj\tm_stm32f4_usart.o
                0x08009d6c                UART5_IRQHandler
 .text.USART6_IRQHandler
                0x08009d98       0x2c ..\obj\tm_stm32f4_usart.o
                0x08009d98                USART6_IRQHandler
 .text.TM_USART_INT_Init
                0x08009dc4      0x18c ..\obj\tm_stm32f4_usart.o
 .text.NVIC_SetPriority
                0x08009f50       0x54 ..\obj\stm32f4x7_eth_bsp.o
 .text.SysTick_Config
                0x08009fa4       0x44 ..\obj\stm32f4x7_eth_bsp.o
 .text.ETH_BSP_Config
                0x08009fe8       0x50 ..\obj\stm32f4x7_eth_bsp.o
                0x08009fe8                ETH_BSP_Config
 .text.ETH_MACDMA_Config
                0x0800a038       0xc8 ..\obj\stm32f4x7_eth_bsp.o
 .text.ETH_GPIO_Config
                0x0800a100      0x124 ..\obj\stm32f4x7_eth_bsp.o
 .text.ADC_Init
                0x0800a224       0xa8 ..\obj\stm32f4xx_adc.o
                0x0800a224                ADC_Init
 .text.ADC_CommonInit
                0x0800a2cc       0x50 ..\obj\stm32f4xx_adc.o
                0x0800a2cc                ADC_CommonInit
 .text.ADC_RegularChannelConfig
                0x0800a31c      0x194 ..\obj\stm32f4xx_adc.o
                0x0800a31c                ADC_RegularChannelConfig
 .text.low_level_init
                0x0800a4b0      0x118 ..\obj\ethernetif.o
 .text.low_level_output
                0x0800a5c8       0x68 ..\obj\ethernetif.o
 .text.low_level_input
                0x0800a630       0xf4 ..\obj\ethernetif.o
 .text.ethernetif_input
                0x0800a724       0x48 ..\obj\ethernetif.o
                0x0800a724                ethernetif_input
 .text.ethernetif_init
                0x0800a76c       0x40 ..\obj\ethernetif.o
                0x0800a76c                ethernetif_init
 .text.free_etharp_q
                0x0800a7ac       0x34 ..\obj\etharp.o
 .text.find_entry
                0x0800a7e0      0x2cc ..\obj\etharp.o
 .text.etharp_send_ip
                0x0800aaac       0x68 ..\obj\etharp.o
 .text.update_arp_entry
                0x0800ab14      0x150 ..\obj\etharp.o
 .text.etharp_ip_input
                0x0800ac64       0x50 ..\obj\etharp.o
                0x0800ac64                etharp_ip_input
 .text.etharp_arp_input
                0x0800acb4      0x1fc ..\obj\etharp.o
                0x0800acb4                etharp_arp_input
 .text.etharp_output
                0x0800aeb0       0xf8 ..\obj\etharp.o
                0x0800aeb0                etharp_output
 .text.etharp_query
                0x0800afa8      0x24c ..\obj\etharp.o
                0x0800afa8                etharp_query
 .text.etharp_raw
                0x0800b1f4      0x148 ..\obj\etharp.o
                0x0800b1f4                etharp_raw
 .text.etharp_request
                0x0800b33c       0x48 ..\obj\etharp.o
                0x0800b33c                etharp_request
 .text.ethernet_input
                0x0800b384       0x88 ..\obj\etharp.o
                0x0800b384                ethernet_input
 .text.TIM2_IRQHandler
                0x0800b40c       0xf8 ..\obj\tm_stm32f4_delay.o
                0x0800b40c                TIM2_IRQHandler
 .text.TM_DELAY_Init
                0x0800b504       0x14 ..\obj\tm_stm32f4_delay.o
                0x0800b504                TM_DELAY_Init
 .text.TM_DELAY_INT_InitTIM
                0x0800b518       0xc0 ..\obj\tm_stm32f4_delay.o
                0x0800b518                TM_DELAY_INT_InitTIM
 .text.Delayms  0x0800b5d8       0x58 ..\obj\SI7021.o
 .text.SI7021_begin
                0x0800b630       0x44 ..\obj\SI7021.o
                0x0800b630                SI7021_begin
 .text.SI7021_getCelsiusPostHumidity
                0x0800b674       0x40 ..\obj\SI7021.o
                0x0800b674                SI7021_getCelsiusPostHumidity
 .text.SI7021_getHumidityBasisPoints
                0x0800b6b4       0x44 ..\obj\SI7021.o
                0x0800b6b4                SI7021_getHumidityBasisPoints
 .text.SI7021_writeReg
                0x0800b6f8       0x24 ..\obj\SI7021.o
                0x0800b6f8                SI7021_writeReg
 .text.SI7021_readReg
                0x0800b71c       0x28 ..\obj\SI7021.o
                0x0800b71c                SI7021_readReg
 *fill*         0x0800b744        0x4 
 .text.SI7021_getHumidityAndTemperature
                0x0800b748       0xac ..\obj\SI7021.o
                0x0800b748                SI7021_getHumidityAndTemperature
 .text.pbuf_alloc
                0x0800b7f4      0x1f0 ..\obj\pbuf.o
                0x0800b7f4                pbuf_alloc
 .text.pbuf_realloc
                0x0800b9e4       0xc8 ..\obj\pbuf.o
                0x0800b9e4                pbuf_realloc
 .text.pbuf_header
                0x0800baac       0xe0 ..\obj\pbuf.o
                0x0800baac                pbuf_header
 .text.pbuf_free
                0x0800bb8c       0xa0 ..\obj\pbuf.o
                0x0800bb8c                pbuf_free
 .text.pbuf_clen
                0x0800bc2c       0x30 ..\obj\pbuf.o
                0x0800bc2c                pbuf_clen
 .text.pbuf_ref
                0x0800bc5c       0x24 ..\obj\pbuf.o
                0x0800bc5c                pbuf_ref
 .text.pbuf_cat
                0x0800bc80       0x5c ..\obj\pbuf.o
                0x0800bc80                pbuf_cat
 .text.pbuf_chain
                0x0800bcdc       0x20 ..\obj\pbuf.o
                0x0800bcdc                pbuf_chain
 .text.pbuf_copy
                0x0800bcfc      0x100 ..\obj\pbuf.o
                0x0800bcfc                pbuf_copy
 .text.pbuf_copy_partial
                0x0800bdfc       0xcc ..\obj\pbuf.o
                0x0800bdfc                pbuf_copy_partial
 .text.pbuf_take
                0x0800bec8       0x9c ..\obj\pbuf.o
                0x0800bec8                pbuf_take
 .text.htons    0x0800bf64       0x2c ..\obj\inet.o
                0x0800bf64                htons
 .text.ntohs    0x0800bf90       0x1c ..\obj\inet.o
                0x0800bf90                ntohs
 .text.htonl    0x0800bfac       0x34 ..\obj\inet.o
                0x0800bfac                htonl
 .text.ntohl    0x0800bfe0       0x18 ..\obj\inet.o
                0x0800bfe0                ntohl
 .text.TM_I2C_Init
                0x0800bff8      0x138 ..\obj\tm_stm32f4_i2c.o
                0x0800bff8                TM_I2C_Init
 .text.TM_I2C_ReadMulti
                0x0800c130       0x80 ..\obj\tm_stm32f4_i2c.o
                0x0800c130                TM_I2C_ReadMulti
 .text.TM_I2C_ReadMultiNoRegister
                0x0800c1b0       0x6c ..\obj\tm_stm32f4_i2c.o
                0x0800c1b0                TM_I2C_ReadMultiNoRegister
 .text.TM_I2C_WriteMulti
                0x0800c21c       0x5c ..\obj\tm_stm32f4_i2c.o
                0x0800c21c                TM_I2C_WriteMulti
 .text.TM_I2C_WriteMultiNoRegister
                0x0800c278       0x54 ..\obj\tm_stm32f4_i2c.o
                0x0800c278                TM_I2C_WriteMultiNoRegister
 .text.TM_I2C_Start
                0x0800c2cc      0x104 ..\obj\tm_stm32f4_i2c.o
                0x0800c2cc                TM_I2C_Start
 .text.TM_I2C_WriteData
                0x0800c3d0       0x4c ..\obj\tm_stm32f4_i2c.o
                0x0800c3d0                TM_I2C_WriteData
 .text.TM_I2C_ReadAck
                0x0800c41c       0x60 ..\obj\tm_stm32f4_i2c.o
                0x0800c41c                TM_I2C_ReadAck
 .text.TM_I2C_ReadNack
                0x0800c47c       0x70 ..\obj\tm_stm32f4_i2c.o
                0x0800c47c                TM_I2C_ReadNack
 .text.TM_I2C_Stop
                0x0800c4ec       0x64 ..\obj\tm_stm32f4_i2c.o
                0x0800c4ec                TM_I2C_Stop
 .text.TM_I2C_IsDeviceConnected
                0x0800c550       0x38 ..\obj\tm_stm32f4_i2c.o
                0x0800c550                TM_I2C_IsDeviceConnected
 .text.TM_I2C_InitCustomPinsCallback
                0x0800c588       0x18 ..\obj\tm_stm32f4_i2c.o
                0x0800c588                TM_I2C_InitCustomPinsCallback
 .text.TM_I2C1_INT_InitPins
                0x0800c5a0       0x78 ..\obj\tm_stm32f4_i2c.o
                0x0800c5a0                TM_I2C1_INT_InitPins
 .text.TM_I2C2_INT_InitPins
                0x0800c618       0x80 ..\obj\tm_stm32f4_i2c.o
                0x0800c618                TM_I2C2_INT_InitPins
 .text.TM_I2C3_INT_InitPins
                0x0800c698       0x7c ..\obj\tm_stm32f4_i2c.o
                0x0800c698                TM_I2C3_INT_InitPins
 .text.netif_add
                0x0800c714       0x90 ..\obj\netif.o
                0x0800c714                netif_add
 .text.netif_set_addr
                0x0800c7a4       0x2c ..\obj\netif.o
                0x0800c7a4                netif_set_addr
 .text.netif_set_ipaddr
                0x0800c7d0       0xac ..\obj\netif.o
                0x0800c7d0                netif_set_ipaddr
 .text.netif_set_gw
                0x0800c87c       0x28 ..\obj\netif.o
                0x0800c87c                netif_set_gw
 .text.netif_set_netmask
                0x0800c8a4       0x28 ..\obj\netif.o
                0x0800c8a4                netif_set_netmask
 .text.netif_set_default
                0x0800c8cc       0x1c ..\obj\netif.o
                0x0800c8cc                netif_set_default
 .text.netif_set_up
                0x0800c8e8       0x48 ..\obj\netif.o
                0x0800c8e8                netif_set_up
 .text.netif_set_down
                0x0800c930       0x34 ..\obj\netif.o
                0x0800c930                netif_set_down
 .text.netif_is_up
                0x0800c964       0x28 ..\obj\netif.o
                0x0800c964                netif_is_up
 .text.GPIO_Init
                0x0800c98c      0x11c ..\obj\stm32f4xx_gpio.o
                0x0800c98c                GPIO_Init
 .text.GPIO_SetBits
                0x0800caa8       0x1c ..\obj\stm32f4xx_gpio.o
                0x0800caa8                GPIO_SetBits
 .text.GPIO_ResetBits
                0x0800cac4       0x1c ..\obj\stm32f4xx_gpio.o
                0x0800cac4                GPIO_ResetBits
 .text.GPIO_PinAFConfig
                0x0800cae0       0x90 ..\obj\stm32f4xx_gpio.o
                0x0800cae0                GPIO_PinAFConfig
 .text.SystemInit
                0x0800cb70       0x68 ..\obj\system_stm32f4xx.o
                0x0800cb70                SystemInit
 .text.SetSysClock
                0x0800cbd8       0xf4 ..\obj\system_stm32f4xx.o
 .text._sbrk    0x0800cccc       0x40 ..\obj\syscalls.o
                0x0800cccc                _sbrk
 .text._close   0x0800cd0c       0x18 ..\obj\syscalls.o
                0x0800cd0c                _close
 .text._fstat   0x0800cd24       0x20 ..\obj\syscalls.o
                0x0800cd24                _fstat
 .text._isatty  0x0800cd44       0x18 ..\obj\syscalls.o
                0x0800cd44                _isatty
 .text._lseek   0x0800cd5c       0x1c ..\obj\syscalls.o
                0x0800cd5c                _lseek
 .text._read    0x0800cd78       0x1c ..\obj\syscalls.o
                0x0800cd78                _read
 .text._write   0x0800cd94       0x50 ..\obj\syscalls.o
                0x0800cd94                _write
 .text.TM_RTC_Init
                0x0800cde4      0x108 ..\obj\tm_stm32f4_rtc.o
                0x0800cde4                TM_RTC_Init
 .text.TM_RTC_SetDateTime
                0x0800ceec      0x284 ..\obj\tm_stm32f4_rtc.o
                0x0800ceec                TM_RTC_SetDateTime
 .text.TM_RTC_GetDateTime
                0x0800d170       0xa0 ..\obj\tm_stm32f4_rtc.o
                0x0800d170                TM_RTC_GetDateTime
 .text.TM_RTC_Config
                0x0800d210       0x6c ..\obj\tm_stm32f4_rtc.o
                0x0800d210                TM_RTC_Config
 .text.TM_RTC_Interrupts
                0x0800d27c      0x140 ..\obj\tm_stm32f4_rtc.o
                0x0800d27c                TM_RTC_Interrupts
 .text.TM_RTC_GetUnixTimeStamp
                0x0800d3bc      0x170 ..\obj\tm_stm32f4_rtc.o
                0x0800d3bc                TM_RTC_GetUnixTimeStamp
 .text.TM_RTC_RequestHandler
                0x0800d52c        0xc ..\obj\tm_stm32f4_rtc.o
                0x0800d52c                TM_RTC_RequestHandler
 .text.TM_RTC_AlarmAHandler
                0x0800d538        0xc ..\obj\tm_stm32f4_rtc.o
                0x0800d538                TM_RTC_AlarmAHandler
 .text.TM_RTC_AlarmBHandler
                0x0800d544        0xc ..\obj\tm_stm32f4_rtc.o
                0x0800d544                TM_RTC_AlarmBHandler
 .text.RTC_WKUP_IRQHandler
                0x0800d550       0x2c ..\obj\tm_stm32f4_rtc.o
                0x0800d550                RTC_WKUP_IRQHandler
 .text.RTC_Alarm_IRQHandler
                0x0800d57c       0x48 ..\obj\tm_stm32f4_rtc.o
                0x0800d57c                RTC_Alarm_IRQHandler
 .text.Delay    0x0800d5c4       0x3c ..\obj\utilities_new.o
 .text.Delayms  0x0800d600       0x58 ..\obj\utilities_new.o
 .text.GC_GPS_GPIO_Config
                0x0800d658       0x5c ..\obj\utilities_new.o
                0x0800d658                GC_GPS_GPIO_Config
 .text.SFP_GPIO_Config
                0x0800d6b4       0x40 ..\obj\utilities_new.o
                0x0800d6b4                SFP_GPIO_Config
 .text.GSM_GPIO_Config
                0x0800d6f4       0x74 ..\obj\utilities_new.o
                0x0800d6f4                GSM_GPIO_Config
 .text.PHY_GPIO_Config
                0x0800d768       0x40 ..\obj\utilities_new.o
                0x0800d768                PHY_GPIO_Config
 .text.GC_BatVoltage
                0x0800d7a8       0xc8 ..\obj\utilities_new.o
                0x0800d7a8                GC_BatVoltage
 .text.GC_CheckPosition
                0x0800d870       0x9c ..\obj\utilities_new.o
                0x0800d870                GC_CheckPosition
 .text.isLaserOn
                0x0800d90c       0x3c ..\obj\utilities_new.o
                0x0800d90c                isLaserOn
 .text.parseIP  0x0800d948       0x68 ..\obj\utilities_new.o
                0x0800d948                parseIP
 .text.loadIP   0x0800d9b0       0xa0 ..\obj\utilities_new.o
                0x0800d9b0                loadIP
 .text.loadIPaddress
                0x0800da50       0x34 ..\obj\utilities_new.o
                0x0800da50                loadIPaddress
 .text.bkpram   0x0800da84       0xec ..\obj\utilities_new.o
                0x0800da84                bkpram
 .text.config   0x0800db70      0x17c ..\obj\utilities_new.o
                0x0800db70                config
 .text.conf_load
                0x0800dcec       0xc4 ..\obj\utilities_new.o
                0x0800dcec                conf_load
 .text.dev_control
                0x0800ddb0      0x21c ..\obj\utilities_new.o
                0x0800ddb0                dev_control
 .text.udp_input
                0x0800dfcc      0x2c0 ..\obj\udp.o
                0x0800dfcc                udp_input
 .text.udp_send
                0x0800e28c       0x24 ..\obj\udp.o
                0x0800e28c                udp_send
 .text.udp_sendto
                0x0800e2b0       0x40 ..\obj\udp.o
                0x0800e2b0                udp_sendto
 .text.udp_sendto_if
                0x0800e2f0      0x168 ..\obj\udp.o
                0x0800e2f0                udp_sendto_if
 .text.udp_bind
                0x0800e458       0xc0 ..\obj\udp.o
                0x0800e458                udp_bind
 .text.udp_connect
                0x0800e518       0x9c ..\obj\udp.o
                0x0800e518                udp_connect
 .text.udp_recv
                0x0800e5b4       0x24 ..\obj\udp.o
                0x0800e5b4                udp_recv
 .text.udp_remove
                0x0800e5d8       0x60 ..\obj\udp.o
                0x0800e5d8                udp_remove
 .text.udp_new  0x0800e638       0x30 ..\obj\udp.o
                0x0800e638                udp_new
 .text.ip_route
                0x0800e668       0x70 ..\obj\ip.o
                0x0800e668                ip_route
 .text.ip_input
                0x0800e6d8      0x278 ..\obj\ip.o
                0x0800e6d8                ip_input
 .text.ip_output_if
                0x0800e950      0x194 ..\obj\ip.o
                0x0800e950                ip_output_if
 .text.ip_output
                0x0800eae4       0x4c ..\obj\ip.o
                0x0800eae4                ip_output
 .text.I2C_DeInit
                0x0800eb30       0x74 ..\obj\stm32f4xx_i2c.o
                0x0800eb30                I2C_DeInit
 .text.I2C_Init
                0x0800eba4      0x184 ..\obj\stm32f4xx_i2c.o
                0x0800eba4                I2C_Init
 .text.I2C_CheckEvent
                0x0800ed28       0x60 ..\obj\stm32f4xx_i2c.o
                0x0800ed28                I2C_CheckEvent
 .text.EXTI_Init
                0x0800ed88       0xe4 ..\obj\stm32f4xx_exti.o
                0x0800ed88                EXTI_Init
 .text.icmp_input
                0x0800ee6c      0x200 ..\obj\icmp.o
                0x0800ee6c                icmp_input
 .text.icmp_dest_unreach
                0x0800f06c       0x20 ..\obj\icmp.o
                0x0800f06c                icmp_dest_unreach
 .text.icmp_time_exceeded
                0x0800f08c       0x20 ..\obj\icmp.o
                0x0800f08c                icmp_time_exceeded
 .text.icmp_send_response
                0x0800f0ac       0xa8 ..\obj\icmp.o
 .text.NVIC_Init
                0x0800f154       0xc0 ..\obj\misc.o
                0x0800f154                NVIC_Init
 .text.SysTick_CLKSourceConfig
                0x0800f214       0x38 ..\obj\misc.o
                0x0800f214                SysTick_CLKSourceConfig
 .text.dhcp_arp_reply
                0x0800f24c       0x40 ..\obj\dhcp.o
                0x0800f24c                dhcp_arp_reply
 .text.dhcp_decline
                0x0800f28c       0xd4 ..\obj\dhcp.o
 .text.dhcp_set_state
                0x0800f360       0x2c ..\obj\dhcp.o
 .text.dhcp_option
                0x0800f38c       0x4c ..\obj\dhcp.o
 .text.dhcp_option_byte
                0x0800f3d8       0x30 ..\obj\dhcp.o
 .text.dhcp_option_long
                0x0800f408       0x98 ..\obj\dhcp.o
 .text.dhcp_create_request
                0x0800f4a0      0x1e8 ..\obj\dhcp.o
 .text.dhcp_delete_request
                0x0800f688       0x44 ..\obj\dhcp.o
 .text.dhcp_option_trailer
                0x0800f6cc       0x60 ..\obj\dhcp.o
 .text.TM_LOWPOWER_Standby
                0x0800f72c       0x10 ..\obj\tm_stm32f4_low_power.o
                0x0800f72c                TM_LOWPOWER_Standby
 .text.TM_GPIO_Init
                0x0800f73c       0x44 ..\obj\tm_stm32f4_gpio.o
                0x0800f73c                TM_GPIO_Init
 .text.TM_GPIO_InitAlternate
                0x0800f780       0xa8 ..\obj\tm_stm32f4_gpio.o
                0x0800f780                TM_GPIO_InitAlternate
 .text.TM_GPIO_GetPortSource
                0x0800f828       0x24 ..\obj\tm_stm32f4_gpio.o
                0x0800f828                TM_GPIO_GetPortSource
 .text.TM_GPIO_INT_EnableClock
                0x0800f84c       0x2c ..\obj\tm_stm32f4_gpio.o
                0x0800f84c                TM_GPIO_INT_EnableClock
 .text.TM_GPIO_INT_Init
                0x0800f878      0x10c ..\obj\tm_stm32f4_gpio.o
                0x0800f878                TM_GPIO_INT_Init
 .text.RTC_Init
                0x0800f984       0x78 ..\obj\stm32f4xx_rtc.o
                0x0800f984                RTC_Init
 .text.RTC_EnterInitMode
                0x0800f9fc       0x74 ..\obj\stm32f4xx_rtc.o
                0x0800f9fc                RTC_EnterInitMode
 .text.RTC_ExitInitMode
                0x0800fa70       0x1c ..\obj\stm32f4xx_rtc.o
                0x0800fa70                RTC_ExitInitMode
 .text.RTC_WaitForSynchro
                0x0800fa8c       0x78 ..\obj\stm32f4xx_rtc.o
                0x0800fa8c                RTC_WaitForSynchro
 .text.RTC_SetTime
                0x0800fb04      0x114 ..\obj\stm32f4xx_rtc.o
                0x0800fb04                RTC_SetTime
 .text.RTC_GetTime
                0x0800fc18       0x9c ..\obj\stm32f4xx_rtc.o
                0x0800fc18                RTC_GetTime
 .text.RTC_SetDate
                0x0800fcb4      0x120 ..\obj\stm32f4xx_rtc.o
                0x0800fcb4                RTC_SetDate
 .text.RTC_GetDate
                0x0800fdd4       0x9c ..\obj\stm32f4xx_rtc.o
                0x0800fdd4                RTC_GetDate
 .text.RTC_WakeUpClockConfig
                0x0800fe70       0x40 ..\obj\stm32f4xx_rtc.o
                0x0800fe70                RTC_WakeUpClockConfig
 .text.RTC_SetWakeUpCounter
                0x0800feb0       0x30 ..\obj\stm32f4xx_rtc.o
                0x0800feb0                RTC_SetWakeUpCounter
 .text.RTC_WakeUpCmd
                0x0800fee0       0x94 ..\obj\stm32f4xx_rtc.o
                0x0800fee0                RTC_WakeUpCmd
 .text.RTC_WriteBackupRegister
                0x0800ff74       0x34 ..\obj\stm32f4xx_rtc.o
                0x0800ff74                RTC_WriteBackupRegister
 .text.RTC_ReadBackupRegister
                0x0800ffa8       0x30 ..\obj\stm32f4xx_rtc.o
                0x0800ffa8                RTC_ReadBackupRegister
 .text.RTC_ITConfig
                0x0800ffd8       0x78 ..\obj\stm32f4xx_rtc.o
                0x0800ffd8                RTC_ITConfig
 .text.RTC_GetITStatus
                0x08010050       0x68 ..\obj\stm32f4xx_rtc.o
                0x08010050                RTC_GetITStatus
 .text.RTC_ClearITPendingBit
                0x080100b8       0x38 ..\obj\stm32f4xx_rtc.o
                0x080100b8                RTC_ClearITPendingBit
 .text.RTC_ByteToBcd2
                0x080100f0       0x3c ..\obj\stm32f4xx_rtc.o
 .text.RTC_Bcd2ToByte
                0x0801012c       0x38 ..\obj\stm32f4xx_rtc.o
 .text.TM_TIMER_PROPERTIES_GetTimerProperties
                0x08010164      0x100 ..\obj\tm_stm32f4_timer_properties.o
                0x08010164                TM_TIMER_PROPERTIES_GetTimerProperties
 .text.TM_TIMER_PROPERTIES_GenerateDataForWorkingFrequency
                0x08010264      0x128 ..\obj\tm_stm32f4_timer_properties.o
                0x08010264                TM_TIMER_PROPERTIES_GenerateDataForWorkingFrequency
 .text.TM_TIMER_PROPERTIES_EnableClock
                0x0801038c      0x168 ..\obj\tm_stm32f4_timer_properties.o
                0x0801038c                TM_TIMER_PROPERTIES_EnableClock
 .text.TIM_TimeBaseInit
                0x080104f4       0xd4 ..\obj\stm32f4xx_tim.o
                0x080104f4                TIM_TimeBaseInit
 .text.tcp_output_set_header
                0x080105c8       0xec ..\obj\tcp_out.o
 .text.tcp_send_ctrl
                0x080106b4       0x2c ..\obj\tcp_out.o
                0x080106b4                tcp_send_ctrl
 .text.tcp_enqueue
                0x080106e0      0x5b4 ..\obj\tcp_out.o
                0x080106e0                tcp_enqueue
 .text.tcp_send_empty_ack
                0x08010c94       0x84 ..\obj\tcp_out.o
                0x08010c94                tcp_send_empty_ack
 .text.tcp_output
                0x08010d18      0x2d4 ..\obj\tcp_out.o
                0x08010d18                tcp_output
 .text.tcp_output_segment
                0x08010fec      0x144 ..\obj\tcp_out.o
 .text.tcp_rst  0x08011130       0xf0 ..\obj\tcp_out.o
                0x08011130                tcp_rst
 .text.tcp_rexmit
                0x08011220       0x84 ..\obj\tcp_out.o
                0x08011220                tcp_rexmit
 .text.tcp_rexmit_fast
                0x080112a4       0xac ..\obj\tcp_out.o
                0x080112a4                tcp_rexmit_fast
 .text.raw_input
                0x08011350       0xac ..\obj\raw.o
                0x08011350                raw_input
 *fill*         0x080113fc        0x4 
 .text.ceil     0x08011400      0x118 c:/gcc_arm/49/bin/../lib/gcc/arm-none-eabi/4.9.3/../../../../arm-none-eabi/lib/armv7e-m/fpu\libm.a(lib_a-s_ceil.o)
                0x08011400                ceil
 .text.pow      0x08011518      0x340 c:/gcc_arm/49/bin/../lib/gcc/arm-none-eabi/4.9.3/../../../../arm-none-eabi/lib/armv7e-m/fpu\libm.a(lib_a-w_pow.o)
                0x08011518                pow
 .text.log10f   0x08011858      0x100 c:/gcc_arm/49/bin/../lib/gcc/arm-none-eabi/4.9.3/../../../../arm-none-eabi/lib/armv7e-m/fpu\libm.a(lib_a-wf_log10.o)
                0x08011858                log10f
 .text.__ieee754_pow
                0x08011958      0xae0 c:/gcc_arm/49/bin/../lib/gcc/arm-none-eabi/4.9.3/../../../../arm-none-eabi/lib/armv7e-m/fpu\libm.a(lib_a-e_pow.o)
                0x08011958                __ieee754_pow
 .text.__ieee754_sqrt
                0x08012438      0x1a8 c:/gcc_arm/49/bin/../lib/gcc/arm-none-eabi/4.9.3/../../../../arm-none-eabi/lib/armv7e-m/fpu\libm.a(lib_a-e_sqrt.o)
                0x08012438                __ieee754_sqrt
 .text.__ieee754_log10f
                0x080125e0       0xe0 c:/gcc_arm/49/bin/../lib/gcc/arm-none-eabi/4.9.3/../../../../arm-none-eabi/lib/armv7e-m/fpu\libm.a(lib_a-ef_log10.o)
                0x080125e0                __ieee754_log10f
 .text.fabs     0x080126c0       0x10 c:/gcc_arm/49/bin/../lib/gcc/arm-none-eabi/4.9.3/../../../../arm-none-eabi/lib/armv7e-m/fpu\libm.a(lib_a-s_fabs.o)
                0x080126c0                fabs
 .text.finite   0x080126d0       0x10 c:/gcc_arm/49/bin/../lib/gcc/arm-none-eabi/4.9.3/../../../../arm-none-eabi/lib/armv7e-m/fpu\libm.a(lib_a-s_finite.o)
                0x080126d0                finite
 .text.__fpclassifyd
                0x080126e0       0x5c c:/gcc_arm/49/bin/../lib/gcc/arm-none-eabi/4.9.3/../../../../arm-none-eabi/lib/armv7e-m/fpu\libm.a(lib_a-s_fpclassify.o)
                0x080126e0                __fpclassifyd
 .text.matherr  0x0801273c        0x4 c:/gcc_arm/49/bin/../lib/gcc/arm-none-eabi/4.9.3/../../../../arm-none-eabi/lib/armv7e-m/fpu\libm.a(lib_a-s_matherr.o)
                0x0801273c                matherr
 .text.nan      0x08012740       0x10 c:/gcc_arm/49/bin/../lib/gcc/arm-none-eabi/4.9.3/../../../../arm-none-eabi/lib/armv7e-m/fpu\libm.a(lib_a-s_nan.o)
                0x08012740                nan
 .text.rint     0x08012750      0x124 c:/gcc_arm/49/bin/../lib/gcc/arm-none-eabi/4.9.3/../../../../arm-none-eabi/lib/armv7e-m/fpu\libm.a(lib_a-s_rint.o)
                0x08012750                rint
 *fill*         0x08012874        0x4 
 .text.scalbn   0x08012878      0x104 c:/gcc_arm/49/bin/../lib/gcc/arm-none-eabi/4.9.3/../../../../arm-none-eabi/lib/armv7e-m/fpu\libm.a(lib_a-s_scalbn.o)
                0x08012878                scalbn
 .text.__fpclassifyf
                0x0801297c       0x38 c:/gcc_arm/49/bin/../lib/gcc/arm-none-eabi/4.9.3/../../../../arm-none-eabi/lib/armv7e-m/fpu\libm.a(lib_a-sf_fpclassify.o)
                0x0801297c                __fpclassifyf
 .text.__ieee754_logf
                0x080129b4      0x218 c:/gcc_arm/49/bin/../lib/gcc/arm-none-eabi/4.9.3/../../../../arm-none-eabi/lib/armv7e-m/fpu\libm.a(lib_a-ef_log.o)
                0x080129b4                __ieee754_logf
 .text.copysign
                0x08012bcc       0x1c c:/gcc_arm/49/bin/../lib/gcc/arm-none-eabi/4.9.3/../../../../arm-none-eabi/lib/armv7e-m/fpu\libm.a(lib_a-s_copysign.o)
                0x08012bcc                copysign
 .text          0x08012be8      0x370 c:/gcc_arm/49/bin/../lib/gcc/arm-none-eabi/4.9.3/armv7e-m/fpu\libgcc.a(_arm_addsubdf3.o)
                0x08012be8                __aeabi_drsub
                0x08012bf0                __aeabi_dsub
                0x08012bf0                __subdf3
                0x08012bf4                __aeabi_dadd
                0x08012bf4                __adddf3
                0x08012e6c                __floatunsidf
                0x08012e6c                __aeabi_ui2d
                0x08012e8c                __floatsidf
                0x08012e8c                __aeabi_i2d
                0x08012eb0                __aeabi_f2d
                0x08012eb0                __extendsfdf2
                0x08012eec                __floatundidf
                0x08012eec                __aeabi_ul2d
                0x08012efc                __floatdidf
                0x08012efc                __aeabi_l2d
 .text          0x08012f58      0x424 c:/gcc_arm/49/bin/../lib/gcc/arm-none-eabi/4.9.3/armv7e-m/fpu\libgcc.a(_arm_muldivdf3.o)
                0x08012f58                __aeabi_dmul
                0x08012f58                __muldf3
                0x080131ac                __divdf3
                0x080131ac                __aeabi_ddiv
 .text          0x0801337c      0x110 c:/gcc_arm/49/bin/../lib/gcc/arm-none-eabi/4.9.3/armv7e-m/fpu\libgcc.a(_arm_cmpdf2.o)
                0x0801337c                __gtdf2
                0x0801337c                __gedf2
                0x08013384                __ltdf2
                0x08013384                __ledf2
                0x0801338c                __nedf2
                0x0801338c                __eqdf2
                0x0801338c                __cmpdf2
                0x08013408                __aeabi_cdrcmple
                0x08013418                __aeabi_cdcmpeq
                0x08013418                __aeabi_cdcmple
                0x08013428                __aeabi_dcmpeq
                0x0801343c                __aeabi_dcmplt
                0x08013450                __aeabi_dcmple
                0x08013464                __aeabi_dcmpge
                0x08013478                __aeabi_dcmpgt
 .text          0x0801348c       0x50 c:/gcc_arm/49/bin/../lib/gcc/arm-none-eabi/4.9.3/armv7e-m/fpu\libgcc.a(_arm_fixdfsi.o)
                0x0801348c                __aeabi_d2iz
                0x0801348c                __fixdfsi
 .text          0x080134dc       0x40 c:/gcc_arm/49/bin/../lib/gcc/arm-none-eabi/4.9.3/armv7e-m/fpu\libgcc.a(_arm_fixunsdfsi.o)
                0x080134dc                __aeabi_d2uiz
                0x080134dc                __fixunsdfsi
 .text          0x0801351c       0xa0 c:/gcc_arm/49/bin/../lib/gcc/arm-none-eabi/4.9.3/armv7e-m/fpu\libgcc.a(_arm_truncdfsf2.o)
                0x0801351c                __truncdfsf2
                0x0801351c                __aeabi_d2f
 .text.atoi     0x080135bc        0x8 c:/gcc_arm/49/bin/../lib/gcc/arm-none-eabi/4.9.3/../../../../arm-none-eabi/lib/armv7e-m/fpu\libg.a(lib_a-atoi.o)
                0x080135bc                atoi
 .text.__errno  0x080135c4        0xc c:/gcc_arm/49/bin/../lib/gcc/arm-none-eabi/4.9.3/../../../../arm-none-eabi/lib/armv7e-m/fpu\libg.a(lib_a-errno.o)
                0x080135c4                __errno
 .text.malloc   0x080135d0       0x10 c:/gcc_arm/49/bin/../lib/gcc/arm-none-eabi/4.9.3/../../../../arm-none-eabi/lib/armv7e-m/fpu\libg.a(lib_a-malloc.o)
                0x080135d0                malloc
 .text.free     0x080135e0       0x10 c:/gcc_arm/49/bin/../lib/gcc/arm-none-eabi/4.9.3/../../../../arm-none-eabi/lib/armv7e-m/fpu\libg.a(lib_a-malloc.o)
                0x080135e0                free
 .text._malloc_r
                0x080135f0      0x524 c:/gcc_arm/49/bin/../lib/gcc/arm-none-eabi/4.9.3/../../../../arm-none-eabi/lib/armv7e-m/fpu\libg.a(lib_a-mallocr.o)
                0x080135f0                _malloc_r
 .text.memcmp   0x08013b14       0x64 c:/gcc_arm/49/bin/../lib/gcc/arm-none-eabi/4.9.3/../../../../arm-none-eabi/lib/armv7e-m/fpu\libg.a(lib_a-memcmp.o)
                0x08013b14                memcmp
 .text          0x08013b78      0x134 c:/gcc_arm/49/bin/../lib/gcc/arm-none-eabi/4.9.3/../../../../arm-none-eabi/lib/armv7e-m/fpu\libg.a(lib_a-memcpy.o)
                0x08013b78                memcpy
 .text.memset   0x08013cac       0x9c c:/gcc_arm/49/bin/../lib/gcc/arm-none-eabi/4.9.3/../../../../arm-none-eabi/lib/armv7e-m/fpu\libg.a(lib_a-memset.o)
                0x08013cac                memset
 .text.__malloc_lock
                0x08013d48        0x4 c:/gcc_arm/49/bin/../lib/gcc/arm-none-eabi/4.9.3/../../../../arm-none-eabi/lib/armv7e-m/fpu\libg.a(lib_a-mlock.o)
                0x08013d48                __malloc_lock
 .text.__malloc_unlock
                0x08013d4c        0x4 c:/gcc_arm/49/bin/../lib/gcc/arm-none-eabi/4.9.3/../../../../arm-none-eabi/lib/armv7e-m/fpu\libg.a(lib_a-mlock.o)
                0x08013d4c                __malloc_unlock
 .text.printf   0x08013d50       0x28 c:/gcc_arm/49/bin/../lib/gcc/arm-none-eabi/4.9.3/../../../../arm-none-eabi/lib/armv7e-m/fpu\libg.a(lib_a-printf.o)
                0x08013d50                printf
 .text.putchar  0x08013d78       0x14 c:/gcc_arm/49/bin/../lib/gcc/arm-none-eabi/4.9.3/../../../../arm-none-eabi/lib/armv7e-m/fpu\libg.a(lib_a-putchar.o)
                0x08013d78                putchar
 .text._puts_r  0x08013d8c       0x64 c:/gcc_arm/49/bin/../lib/gcc/arm-none-eabi/4.9.3/../../../../arm-none-eabi/lib/armv7e-m/fpu\libg.a(lib_a-puts.o)
                0x08013d8c                _puts_r
 .text.puts     0x08013df0       0x10 c:/gcc_arm/49/bin/../lib/gcc/arm-none-eabi/4.9.3/../../../../arm-none-eabi/lib/armv7e-m/fpu\libg.a(lib_a-puts.o)
                0x08013df0                puts
 .text._sbrk_r  0x08013e00       0x24 c:/gcc_arm/49/bin/../lib/gcc/arm-none-eabi/4.9.3/../../../../arm-none-eabi/lib/armv7e-m/fpu\libg.a(lib_a-sbrkr.o)
                0x08013e00                _sbrk_r
 .text.sprintf  0x08013e24       0x4c c:/gcc_arm/49/bin/../lib/gcc/arm-none-eabi/4.9.3/../../../../arm-none-eabi/lib/armv7e-m/fpu\libg.a(lib_a-sprintf.o)
                0x08013e24                sprintf
 .text.strcat   0x08013e70       0x40 c:/gcc_arm/49/bin/../lib/gcc/arm-none-eabi/4.9.3/../../../../arm-none-eabi/lib/armv7e-m/fpu\libg.a(lib_a-strcat.o)
                0x08013e70                strcat
 .text.strcpy   0x08013eb0       0xbc c:/gcc_arm/49/bin/../lib/gcc/arm-none-eabi/4.9.3/../../../../arm-none-eabi/lib/armv7e-m/fpu\libg.a(lib_a-strcpy.o)
                0x08013eb0                strcpy
 .text.strlen   0x08013f6c       0x5c c:/gcc_arm/49/bin/../lib/gcc/arm-none-eabi/4.9.3/../../../../arm-none-eabi/lib/armv7e-m/fpu\libg.a(lib_a-strlen.o)
                0x08013f6c                strlen
 .text.strncmp  0x08013fc8       0x98 c:/gcc_arm/49/bin/../lib/gcc/arm-none-eabi/4.9.3/../../../../arm-none-eabi/lib/armv7e-m/fpu\libg.a(lib_a-strncmp.o)
                0x08013fc8                strncmp
 .text.strncpy  0x08014060       0x68 c:/gcc_arm/49/bin/../lib/gcc/arm-none-eabi/4.9.3/../../../../arm-none-eabi/lib/armv7e-m/fpu\libg.a(lib_a-strncpy.o)
                0x08014060                strncpy
 .text.critical_factorization
                0x080140c8       0xb8 c:/gcc_arm/49/bin/../lib/gcc/arm-none-eabi/4.9.3/../../../../arm-none-eabi/lib/armv7e-m/fpu\libg.a(lib_a-strstr.o)
 .text.two_way_long_needle
                0x08014180      0x1f8 c:/gcc_arm/49/bin/../lib/gcc/arm-none-eabi/4.9.3/../../../../arm-none-eabi/lib/armv7e-m/fpu\libg.a(lib_a-strstr.o)
 .text.strstr   0x08014378      0x220 c:/gcc_arm/49/bin/../lib/gcc/arm-none-eabi/4.9.3/../../../../arm-none-eabi/lib/armv7e-m/fpu\libg.a(lib_a-strstr.o)
                0x08014378                strstr
 .text.strtok   0x08014598       0x10 c:/gcc_arm/49/bin/../lib/gcc/arm-none-eabi/4.9.3/../../../../arm-none-eabi/lib/armv7e-m/fpu\libg.a(lib_a-strtok.o)
                0x08014598                strtok
 .text.__strtok_r
                0x080145a8       0x64 c:/gcc_arm/49/bin/../lib/gcc/arm-none-eabi/4.9.3/../../../../arm-none-eabi/lib/armv7e-m/fpu\libg.a(lib_a-strtok_r.o)
                0x080145a8                __strtok_r
 .text._strtol_r
                0x0801460c      0x11c c:/gcc_arm/49/bin/../lib/gcc/arm-none-eabi/4.9.3/../../../../arm-none-eabi/lib/armv7e-m/fpu\libg.a(lib_a-strtol.o)
                0x0801460c                _strtol_r
 .text.strtol   0x08014728       0x18 c:/gcc_arm/49/bin/../lib/gcc/arm-none-eabi/4.9.3/../../../../arm-none-eabi/lib/armv7e-m/fpu\libg.a(lib_a-strtol.o)
                0x08014728                strtol
 .text._svfprintf_r
                0x08014740     0x14cc c:/gcc_arm/49/bin/../lib/gcc/arm-none-eabi/4.9.3/../../../../arm-none-eabi/lib/armv7e-m/fpu\libg.a(lib_a-svfprintf.o)
                0x08014740                _svfprintf_r
 *fill*         0x08015c0c        0x4 
 .text._vfprintf_r
                0x08015c10     0x1424 c:/gcc_arm/49/bin/../lib/gcc/arm-none-eabi/4.9.3/../../../../arm-none-eabi/lib/armv7e-m/fpu\libg.a(lib_a-vfprintf.o)
                0x08015c10                _vfprintf_r
 .text.__sbprintf
                0x08017034       0x78 c:/gcc_arm/49/bin/../lib/gcc/arm-none-eabi/4.9.3/../../../../arm-none-eabi/lib/armv7e-m/fpu\libg.a(lib_a-vfprintf.o)
 .text.__swsetup_r
                0x080170ac       0xc4 c:/gcc_arm/49/bin/../lib/gcc/arm-none-eabi/4.9.3/../../../../arm-none-eabi/lib/armv7e-m/fpu\libg.a(lib_a-wsetup.o)
                0x080170ac                __swsetup_r
 .text.quorem   0x08017170      0x12c c:/gcc_arm/49/bin/../lib/gcc/arm-none-eabi/4.9.3/../../../../arm-none-eabi/lib/armv7e-m/fpu\libg.a(lib_a-dtoa.o)
 *fill*         0x0801729c        0x4 
 .text._dtoa_r  0x080172a0      0xea4 c:/gcc_arm/49/bin/../lib/gcc/arm-none-eabi/4.9.3/../../../../arm-none-eabi/lib/armv7e-m/fpu\libg.a(lib_a-dtoa.o)
                0x080172a0                _dtoa_r
 .text.__sflush_r
                0x08018144      0x154 c:/gcc_arm/49/bin/../lib/gcc/arm-none-eabi/4.9.3/../../../../arm-none-eabi/lib/armv7e-m/fpu\libg.a(lib_a-fflush.o)
                0x08018144                __sflush_r
 .text._fflush_r
                0x08018298       0x2c c:/gcc_arm/49/bin/../lib/gcc/arm-none-eabi/4.9.3/../../../../arm-none-eabi/lib/armv7e-m/fpu\libg.a(lib_a-fflush.o)
                0x08018298                _fflush_r
 .text._cleanup_r
                0x080182c4        0xc c:/gcc_arm/49/bin/../lib/gcc/arm-none-eabi/4.9.3/../../../../arm-none-eabi/lib/armv7e-m/fpu\libg.a(lib_a-findfp.o)
                0x080182c4                _cleanup_r
 .text.__sinit.part.1
                0x080182d0       0xf0 c:/gcc_arm/49/bin/../lib/gcc/arm-none-eabi/4.9.3/../../../../arm-none-eabi/lib/armv7e-m/fpu\libg.a(lib_a-findfp.o)
 .text.__sinit  0x080183c0        0xc c:/gcc_arm/49/bin/../lib/gcc/arm-none-eabi/4.9.3/../../../../arm-none-eabi/lib/armv7e-m/fpu\libg.a(lib_a-findfp.o)
                0x080183c0                __sinit
 .text.__sfp_lock_acquire
                0x080183cc        0x4 c:/gcc_arm/49/bin/../lib/gcc/arm-none-eabi/4.9.3/../../../../arm-none-eabi/lib/armv7e-m/fpu\libg.a(lib_a-findfp.o)
                0x080183cc                __sfp_lock_acquire
 .text.__sfp_lock_release
                0x080183d0        0x4 c:/gcc_arm/49/bin/../lib/gcc/arm-none-eabi/4.9.3/../../../../arm-none-eabi/lib/armv7e-m/fpu\libg.a(lib_a-findfp.o)
                0x080183d0                __sfp_lock_release
 .text._malloc_trim_r
                0x080183d4       0x9c c:/gcc_arm/49/bin/../lib/gcc/arm-none-eabi/4.9.3/../../../../arm-none-eabi/lib/armv7e-m/fpu\libg.a(lib_a-freer.o)
                0x080183d4                _malloc_trim_r
 .text._free_r  0x08018470      0x1b0 c:/gcc_arm/49/bin/../lib/gcc/arm-none-eabi/4.9.3/../../../../arm-none-eabi/lib/armv7e-m/fpu\libg.a(lib_a-freer.o)
                0x08018470                _free_r
 .text.__sfvwrite_r
                0x08018620      0x318 c:/gcc_arm/49/bin/../lib/gcc/arm-none-eabi/4.9.3/../../../../arm-none-eabi/lib/armv7e-m/fpu\libg.a(lib_a-fvwrite.o)
                0x08018620                __sfvwrite_r
 .text._fwalk_reent
                0x08018938       0x54 c:/gcc_arm/49/bin/../lib/gcc/arm-none-eabi/4.9.3/../../../../arm-none-eabi/lib/armv7e-m/fpu\libg.a(lib_a-fwalk.o)
                0x08018938                _fwalk_reent
 .text.__locale_charset
                0x0801898c        0x8 c:/gcc_arm/49/bin/../lib/gcc/arm-none-eabi/4.9.3/../../../../arm-none-eabi/lib/armv7e-m/fpu\libg.a(lib_a-locale.o)
                0x0801898c                __locale_charset
 .text.__locale_mb_cur_max
                0x08018994        0xc c:/gcc_arm/49/bin/../lib/gcc/arm-none-eabi/4.9.3/../../../../arm-none-eabi/lib/armv7e-m/fpu\libg.a(lib_a-locale.o)
                0x08018994                __locale_mb_cur_max
 .text._localeconv_r
                0x080189a0        0x8 c:/gcc_arm/49/bin/../lib/gcc/arm-none-eabi/4.9.3/../../../../arm-none-eabi/lib/armv7e-m/fpu\libg.a(lib_a-locale.o)
                0x080189a0                _localeconv_r
 .text.__smakebuf_r
                0x080189a8       0xe0 c:/gcc_arm/49/bin/../lib/gcc/arm-none-eabi/4.9.3/../../../../arm-none-eabi/lib/armv7e-m/fpu\libg.a(lib_a-makebuf.o)
                0x080189a8                __smakebuf_r
 .text.memchr   0x08018a88       0x94 c:/gcc_arm/49/bin/../lib/gcc/arm-none-eabi/4.9.3/../../../../arm-none-eabi/lib/armv7e-m/fpu\libg.a(lib_a-memchr.o)
                0x08018a88                memchr
 .text.memmove  0x08018b1c       0xc8 c:/gcc_arm/49/bin/../lib/gcc/arm-none-eabi/4.9.3/../../../../arm-none-eabi/lib/armv7e-m/fpu\libg.a(lib_a-memmove.o)
                0x08018b1c                memmove
 .text._Balloc  0x08018be4       0x4c c:/gcc_arm/49/bin/../lib/gcc/arm-none-eabi/4.9.3/../../../../arm-none-eabi/lib/armv7e-m/fpu\libg.a(lib_a-mprec.o)
                0x08018be4                _Balloc
 .text._Bfree   0x08018c30       0x14 c:/gcc_arm/49/bin/../lib/gcc/arm-none-eabi/4.9.3/../../../../arm-none-eabi/lib/armv7e-m/fpu\libg.a(lib_a-mprec.o)
                0x08018c30                _Bfree
 .text.__multadd
                0x08018c44       0x84 c:/gcc_arm/49/bin/../lib/gcc/arm-none-eabi/4.9.3/../../../../arm-none-eabi/lib/armv7e-m/fpu\libg.a(lib_a-mprec.o)
                0x08018c44                __multadd
 .text.__hi0bits
                0x08018cc8       0x40 c:/gcc_arm/49/bin/../lib/gcc/arm-none-eabi/4.9.3/../../../../arm-none-eabi/lib/armv7e-m/fpu\libg.a(lib_a-mprec.o)
                0x08018cc8                __hi0bits
 .text.__lo0bits
                0x08018d08       0x5c c:/gcc_arm/49/bin/../lib/gcc/arm-none-eabi/4.9.3/../../../../arm-none-eabi/lib/armv7e-m/fpu\libg.a(lib_a-mprec.o)
                0x08018d08                __lo0bits
 .text.__i2b    0x08018d64       0x14 c:/gcc_arm/49/bin/../lib/gcc/arm-none-eabi/4.9.3/../../../../arm-none-eabi/lib/armv7e-m/fpu\libg.a(lib_a-mprec.o)
                0x08018d64                __i2b
 .text.__multiply
                0x08018d78      0x134 c:/gcc_arm/49/bin/../lib/gcc/arm-none-eabi/4.9.3/../../../../arm-none-eabi/lib/armv7e-m/fpu\libg.a(lib_a-mprec.o)
                0x08018d78                __multiply
 .text.__pow5mult
                0x08018eac       0xa0 c:/gcc_arm/49/bin/../lib/gcc/arm-none-eabi/4.9.3/../../../../arm-none-eabi/lib/armv7e-m/fpu\libg.a(lib_a-mprec.o)
                0x08018eac                __pow5mult
 .text.__lshift
                0x08018f4c       0xac c:/gcc_arm/49/bin/../lib/gcc/arm-none-eabi/4.9.3/../../../../arm-none-eabi/lib/armv7e-m/fpu\libg.a(lib_a-mprec.o)
                0x08018f4c                __lshift
 .text.__mcmp   0x08018ff8       0x48 c:/gcc_arm/49/bin/../lib/gcc/arm-none-eabi/4.9.3/../../../../arm-none-eabi/lib/armv7e-m/fpu\libg.a(lib_a-mprec.o)
                0x08018ff8                __mcmp
 .text.__mdiff  0x08019040       0xd4 c:/gcc_arm/49/bin/../lib/gcc/arm-none-eabi/4.9.3/../../../../arm-none-eabi/lib/armv7e-m/fpu\libg.a(lib_a-mprec.o)
                0x08019040                __mdiff
 .text.__d2b    0x08019114       0xbc c:/gcc_arm/49/bin/../lib/gcc/arm-none-eabi/4.9.3/../../../../arm-none-eabi/lib/armv7e-m/fpu\libg.a(lib_a-mprec.o)
                0x08019114                __d2b
 .text._putc_r  0x080191d0       0x58 c:/gcc_arm/49/bin/../lib/gcc/arm-none-eabi/4.9.3/../../../../arm-none-eabi/lib/armv7e-m/fpu\libg.a(lib_a-putc.o)
                0x080191d0                _putc_r
 .text._realloc_r
                0x08019228      0x3ec c:/gcc_arm/49/bin/../lib/gcc/arm-none-eabi/4.9.3/../../../../arm-none-eabi/lib/armv7e-m/fpu\libg.a(lib_a-reallocr.o)
                0x08019228                _realloc_r
 .text.__sread  0x08019614       0x24 c:/gcc_arm/49/bin/../lib/gcc/arm-none-eabi/4.9.3/../../../../arm-none-eabi/lib/armv7e-m/fpu\libg.a(lib_a-stdio.o)
                0x08019614                __sread
 .text.__swrite
                0x08019638       0x38 c:/gcc_arm/49/bin/../lib/gcc/arm-none-eabi/4.9.3/../../../../arm-none-eabi/lib/armv7e-m/fpu\libg.a(lib_a-stdio.o)
                0x08019638                __swrite
 .text.__sseek  0x08019670       0x20 c:/gcc_arm/49/bin/../lib/gcc/arm-none-eabi/4.9.3/../../../../arm-none-eabi/lib/armv7e-m/fpu\libg.a(lib_a-stdio.o)
                0x08019670                __sseek
 .text.__sclose
                0x08019690        0x8 c:/gcc_arm/49/bin/../lib/gcc/arm-none-eabi/4.9.3/../../../../arm-none-eabi/lib/armv7e-m/fpu\libg.a(lib_a-stdio.o)
                0x08019690                __sclose
 .text.strchr   0x08019698       0xcc c:/gcc_arm/49/bin/../lib/gcc/arm-none-eabi/4.9.3/../../../../arm-none-eabi/lib/armv7e-m/fpu\libg.a(lib_a-strchr.o)
                0x08019698                strchr
 .text.__ssprint_r
                0x08019764      0x104 c:/gcc_arm/49/bin/../lib/gcc/arm-none-eabi/4.9.3/../../../../arm-none-eabi/lib/armv7e-m/fpu\libg.a(lib_a-svfiprintf.o)
                0x08019764                __ssprint_r
 .text.__sprint_r.part.0
                0x08019868       0x78 c:/gcc_arm/49/bin/../lib/gcc/arm-none-eabi/4.9.3/../../../../arm-none-eabi/lib/armv7e-m/fpu\libg.a(lib_a-vfiprintf.o)
 .text.__sprint_r
                0x080198e0       0x18 c:/gcc_arm/49/bin/../lib/gcc/arm-none-eabi/4.9.3/../../../../arm-none-eabi/lib/armv7e-m/fpu\libg.a(lib_a-vfiprintf.o)
                0x080198e0                __sprint_r
 .text.__swbuf_r
                0x080198f8       0xa8 c:/gcc_arm/49/bin/../lib/gcc/arm-none-eabi/4.9.3/../../../../arm-none-eabi/lib/armv7e-m/fpu\libg.a(lib_a-wbuf.o)
                0x080198f8                __swbuf_r
 .text._write_r
                0x080199a0       0x28 c:/gcc_arm/49/bin/../lib/gcc/arm-none-eabi/4.9.3/../../../../arm-none-eabi/lib/armv7e-m/fpu\libg.a(lib_a-writer.o)
                0x080199a0                _write_r
 .text._calloc_r
                0x080199c8       0x60 c:/gcc_arm/49/bin/../lib/gcc/arm-none-eabi/4.9.3/../../../../arm-none-eabi/lib/armv7e-m/fpu\libg.a(lib_a-callocr.o)
                0x080199c8                _calloc_r
 .text._close_r
                0x08019a28       0x24 c:/gcc_arm/49/bin/../lib/gcc/arm-none-eabi/4.9.3/../../../../arm-none-eabi/lib/armv7e-m/fpu\libg.a(lib_a-closer.o)
                0x08019a28                _close_r
 .text._fclose_r
                0x08019a4c       0x84 c:/gcc_arm/49/bin/../lib/gcc/arm-none-eabi/4.9.3/../../../../arm-none-eabi/lib/armv7e-m/fpu\libg.a(lib_a-fclose.o)
                0x08019a4c                _fclose_r
 .text.__fputwc
                0x08019ad0       0xb0 c:/gcc_arm/49/bin/../lib/gcc/arm-none-eabi/4.9.3/../../../../arm-none-eabi/lib/armv7e-m/fpu\libg.a(lib_a-fputwc.o)
                0x08019ad0                __fputwc
 .text._fputwc_r
                0x08019b80       0x24 c:/gcc_arm/49/bin/../lib/gcc/arm-none-eabi/4.9.3/../../../../arm-none-eabi/lib/armv7e-m/fpu\libg.a(lib_a-fputwc.o)
                0x08019b80                _fputwc_r
 .text._fstat_r
                0x08019ba4       0x28 c:/gcc_arm/49/bin/../lib/gcc/arm-none-eabi/4.9.3/../../../../arm-none-eabi/lib/armv7e-m/fpu\libg.a(lib_a-fstatr.o)
                0x08019ba4                _fstat_r
 .text._isatty_r
                0x08019bcc       0x24 c:/gcc_arm/49/bin/../lib/gcc/arm-none-eabi/4.9.3/../../../../arm-none-eabi/lib/armv7e-m/fpu\libg.a(lib_a-isattyr.o)
                0x08019bcc                _isatty_r
 .text._lseek_r
                0x08019bf0       0x28 c:/gcc_arm/49/bin/../lib/gcc/arm-none-eabi/4.9.3/../../../../arm-none-eabi/lib/armv7e-m/fpu\libg.a(lib_a-lseekr.o)
                0x08019bf0                _lseek_r
 .text._read_r  0x08019c18       0x28 c:/gcc_arm/49/bin/../lib/gcc/arm-none-eabi/4.9.3/../../../../arm-none-eabi/lib/armv7e-m/fpu\libg.a(lib_a-readr.o)
                0x08019c18                _read_r
 .text._wcrtomb_r
                0x08019c40       0x54 c:/gcc_arm/49/bin/../lib/gcc/arm-none-eabi/4.9.3/../../../../arm-none-eabi/lib/armv7e-m/fpu\libg.a(lib_a-wcrtomb.o)
                0x08019c40                _wcrtomb_r
 .text.__ascii_wctomb
                0x08019c94       0x1c c:/gcc_arm/49/bin/../lib/gcc/arm-none-eabi/4.9.3/../../../../arm-none-eabi/lib/armv7e-m/fpu\libg.a(lib_a-wctomb_r.o)
                0x08019c94                __ascii_wctomb
 .text          0x08019cb0       0x30 c:/gcc_arm/49/bin/../lib/gcc/arm-none-eabi/4.9.3/armv7e-m/fpu\libgcc.a(_aeabi_uldivmod.o)
                0x08019cb0                __aeabi_uldivmod
 .text          0x08019ce0       0x60 c:/gcc_arm/49/bin/../lib/gcc/arm-none-eabi/4.9.3/armv7e-m/fpu\libgcc.a(bpabi.o)
                0x08019ce0                __gnu_ldivmod_helper
                0x08019d10                __gnu_uldivmod_helper
 .text          0x08019d40        0x4 c:/gcc_arm/49/bin/../lib/gcc/arm-none-eabi/4.9.3/armv7e-m/fpu\libgcc.a(_dvmd_tls.o)
                0x08019d40                __aeabi_idiv0
                0x08019d40                __aeabi_ldiv0
 .text          0x08019d44      0x29c c:/gcc_arm/49/bin/../lib/gcc/arm-none-eabi/4.9.3/armv7e-m/fpu\libgcc.a(_divdi3.o)
                0x08019d44                __divdi3
 .text          0x08019fe0      0x26c c:/gcc_arm/49/bin/../lib/gcc/arm-none-eabi/4.9.3/armv7e-m/fpu\libgcc.a(_udivdi3.o)
                0x08019fe0                __udivdi3
 *(.init)
 *(.fini)
 *crtbegin.o(.ctors)
 *crtbegin?.o(.ctors)
 *(EXCLUDE_FILE(*crtend.o *crtend?.o) .ctors)
 *(SORT(.ctors.*))
 *(.ctors)
 *crtbegin.o(.dtors)
 *crtbegin?.o(.dtors)
 *(EXCLUDE_FILE(*crtend.o *crtend?.o) .dtors)
 *(SORT(.dtors.*))
 *(.dtors)
 *(.rodata*)
 .rodata        0x0801a24c       0x89 ..\obj\udp_echoclient.o
 *fill*         0x0801a2d5        0x3 
 .rodata        0x0801a2d8        0xf ..\obj\cmdline.o
 *fill*         0x0801a2e7        0x1 
 .rodata        0x0801a2e8       0x8f ..\obj\tcp.o
                0x0801a360                tcp_backoff
                0x0801a370                tcp_persist_backoff
 *fill*         0x0801a377        0x1 
 .rodata        0x0801a378      0x256 ..\obj\gsm.o
 *fill*         0x0801a5ce        0x2 
 .rodata        0x0801a5d0       0x26 ..\obj\memp.o
 *fill*         0x0801a5f6        0x2 
 .rodata        0x0801a5f8       0x1f ..\obj\tm_stm32f4_gps.o
 *fill*         0x0801a617        0x1 
 .rodata        0x0801a618        0x8 ..\obj\ip_addr.o
                0x0801a618                ip_addr_any
                0x0801a61c                ip_addr_broadcast
 .rodata        0x0801a620       0x76 ..\obj\main.o
 *fill*         0x0801a696        0x2 
 .rodata        0x0801a698       0x86 ..\obj\netconf.o
 *fill*         0x0801a71e        0x2 
 .rodata        0x0801a720      0xa98 ..\obj\cmdline_functions.o
 .rodata        0x0801b1b8       0x14 ..\obj\stm32f4x7_eth_bsp.o
 .rodata        0x0801b1cc       0x39 ..\obj\ethernetif.o
 *fill*         0x0801b205        0x3 
 .rodata        0x0801b208        0xe ..\obj\etharp.o
                0x0801b208                ethbroadcast
                0x0801b210                ethzero
 *fill*         0x0801b216        0x2 
 .rodata        0x0801b218       0x87 ..\obj\utilities_new.o
 *fill*         0x0801b29f        0x1 
 .rodata.str1.4
                0x0801b2a0        0x4 c:/gcc_arm/49/bin/../lib/gcc/arm-none-eabi/4.9.3/../../../../arm-none-eabi/lib/armv7e-m/fpu\libm.a(lib_a-w_pow.o)
 .rodata.str1.4
                0x0801b2a4        0x7 c:/gcc_arm/49/bin/../lib/gcc/arm-none-eabi/4.9.3/../../../../arm-none-eabi/lib/armv7e-m/fpu\libm.a(lib_a-wf_log10.o)
                                  0x9 (size before relaxing)
 *fill*         0x0801b2ab        0x5 
 .rodata.dp_h   0x0801b2b0       0x10 c:/gcc_arm/49/bin/../lib/gcc/arm-none-eabi/4.9.3/../../../../arm-none-eabi/lib/armv7e-m/fpu\libm.a(lib_a-e_pow.o)
 .rodata.dp_l   0x0801b2c0       0x10 c:/gcc_arm/49/bin/../lib/gcc/arm-none-eabi/4.9.3/../../../../arm-none-eabi/lib/armv7e-m/fpu\libm.a(lib_a-e_pow.o)
 .rodata.bp     0x0801b2d0       0x10 c:/gcc_arm/49/bin/../lib/gcc/arm-none-eabi/4.9.3/../../../../arm-none-eabi/lib/armv7e-m/fpu\libm.a(lib_a-e_pow.o)
 .rodata.str1.4
                0x00000000        0x1 c:/gcc_arm/49/bin/../lib/gcc/arm-none-eabi/4.9.3/../../../../arm-none-eabi/lib/armv7e-m/fpu\libm.a(lib_a-e_pow.o)
 .rodata.TWO52  0x0801b2e0       0x10 c:/gcc_arm/49/bin/../lib/gcc/arm-none-eabi/4.9.3/../../../../arm-none-eabi/lib/armv7e-m/fpu\libm.a(lib_a-s_rint.o)
 .rodata.str1.4
                0x0801b2f0        0x2 c:/gcc_arm/49/bin/../lib/gcc/arm-none-eabi/4.9.3/../../../../arm-none-eabi/lib/armv7e-m/fpu\libg.a(lib_a-impure.o)
 *fill*         0x0801b2f2        0x2 
 .rodata.str1.4
                0x0801b2f4        0x2 c:/gcc_arm/49/bin/../lib/gcc/arm-none-eabi/4.9.3/../../../../arm-none-eabi/lib/armv7e-m/fpu\libg.a(lib_a-puts.o)
 *fill*         0x0801b2f6        0x2 
 .rodata.zeroes.6911
                0x0801b2f8       0x10 c:/gcc_arm/49/bin/../lib/gcc/arm-none-eabi/4.9.3/../../../../arm-none-eabi/lib/armv7e-m/fpu\libg.a(lib_a-svfprintf.o)
 .rodata.blanks.6910
                0x0801b308       0x10 c:/gcc_arm/49/bin/../lib/gcc/arm-none-eabi/4.9.3/../../../../arm-none-eabi/lib/armv7e-m/fpu\libg.a(lib_a-svfprintf.o)
 .rodata.str1.4
                0x0801b318       0x42 c:/gcc_arm/49/bin/../lib/gcc/arm-none-eabi/4.9.3/../../../../arm-none-eabi/lib/armv7e-m/fpu\libg.a(lib_a-svfprintf.o)
 *fill*         0x0801b35a        0x2 
 .rodata.zeroes.6926
                0x0801b35c       0x10 c:/gcc_arm/49/bin/../lib/gcc/arm-none-eabi/4.9.3/../../../../arm-none-eabi/lib/armv7e-m/fpu\libg.a(lib_a-vfprintf.o)
 .rodata.str1.4
                0x00000000       0x42 c:/gcc_arm/49/bin/../lib/gcc/arm-none-eabi/4.9.3/../../../../arm-none-eabi/lib/armv7e-m/fpu\libg.a(lib_a-vfprintf.o)
 .rodata.blanks.6925
                0x0801b36c       0x10 c:/gcc_arm/49/bin/../lib/gcc/arm-none-eabi/4.9.3/../../../../arm-none-eabi/lib/armv7e-m/fpu\libg.a(lib_a-vfprintf.o)
 .rodata._ctype_
                0x0801b37c      0x101 c:/gcc_arm/49/bin/../lib/gcc/arm-none-eabi/4.9.3/../../../../arm-none-eabi/lib/armv7e-m/fpu\libg.a(lib_a-ctype_.o)
                0x0801b37c                _ctype_
 *fill*         0x0801b47d        0x3 
 .rodata.str1.4
                0x0801b480       0x10 c:/gcc_arm/49/bin/../lib/gcc/arm-none-eabi/4.9.3/../../../../arm-none-eabi/lib/armv7e-m/fpu\libg.a(lib_a-dtoa.o)
                                 0x12 (size before relaxing)
 .rodata.str1.4
                0x0801b490        0xc c:/gcc_arm/49/bin/../lib/gcc/arm-none-eabi/4.9.3/../../../../arm-none-eabi/lib/armv7e-m/fpu\libg.a(lib_a-locale.o)
                                 0x12 (size before relaxing)
 *fill*         0x0801b49c        0x4 
 .rodata.__mprec_tens
                0x0801b4a0       0xc8 c:/gcc_arm/49/bin/../lib/gcc/arm-none-eabi/4.9.3/../../../../arm-none-eabi/lib/armv7e-m/fpu\libg.a(lib_a-mprec.o)
                0x0801b4a0                __mprec_tens
 .rodata.p05.5302
                0x0801b568        0xc c:/gcc_arm/49/bin/../lib/gcc/arm-none-eabi/4.9.3/../../../../arm-none-eabi/lib/armv7e-m/fpu\libg.a(lib_a-mprec.o)
 *fill*         0x0801b574        0x4 
 .rodata.__mprec_bigtens
                0x0801b578       0x28 c:/gcc_arm/49/bin/../lib/gcc/arm-none-eabi/4.9.3/../../../../arm-none-eabi/lib/armv7e-m/fpu\libg.a(lib_a-mprec.o)
                0x0801b578                __mprec_bigtens
 *(.eh_fram e*)

.glue_7         0x0801b5a0        0x0
 .glue_7        0x00000000        0x0 linker stubs

.glue_7t        0x0801b5a0        0x0
 .glue_7t       0x00000000        0x0 linker stubs

.vfp11_veneer   0x0801b5a0        0x0
 .vfp11_veneer  0x00000000        0x0 linker stubs

.v4_bx          0x0801b5a0        0x0
 .v4_bx         0x00000000        0x0 linker stubs

.iplt           0x0801b5a0        0x0
 .iplt          0x00000000        0x0 ..\obj\stm32f4xx_syscfg.o

.ARM.extab
 *(.ARM.extab* .gnu.linkonce.armextab.*)
                0x0801b5a0                __exidx_start = .

.ARM.exidx      0x0801b5a0        0x8
 *(.ARM.exidx* .gnu.linkonce.armexidx.*)
 .ARM.exidx     0x0801b5a0        0x8 c:/gcc_arm/49/bin/../lib/gcc/arm-none-eabi/4.9.3/armv7e-m/fpu\libgcc.a(_divdi3.o)
 .ARM.exidx     0x0801b5a8        0x0 c:/gcc_arm/49/bin/../lib/gcc/arm-none-eabi/4.9.3/armv7e-m/fpu\libgcc.a(_udivdi3.o)
                                  0x8 (size before relaxing)
                0x0801b5a8                __exidx_end = .
                0x0801b5a8                __etext = .
                0x0801b5a8                _sidata = __etext

.rel.dyn        0x0801b5a8        0x0
 .rel.iplt      0x00000000        0x0 ..\obj\stm32f4xx_syscfg.o

.data           0x20000000      0x9e8 load address 0x0801b5a8
                0x20000000                __data_start__ = .
                0x20000000                _sdata = __data_start__
 *(vtable)
 *(.data*)
 .data          0x20000000       0x3a ..\obj\cmdline.o
                0x20000000                CmdlinePrompt
                0x20000010                CmdlineError
                0x20000018                CmdlineCommand
                0x20000024                CmdlineNotice
                0x20000030                CmdlineCmdNotFound
 *fill*         0x2000003a        0x2 
 .data          0x2000003c       0x34 ..\obj\tcp.o
                0x2000003c                tcp_state_str
 .data          0x20000070        0x1 ..\obj\tm_stm32f4_gps.o
 *fill*         0x20000071        0x3 
 .data          0x20000074       0x10 ..\obj\stm32f4xx_rcc.o
 .data          0x20000084       0x60 ..\obj\tm_stm32f4_usart.o
                0x20000084                TM_USART1
                0x20000094                TM_USART2
                0x200000a4                TM_USART3
                0x200000b4                TM_UART4
                0x200000c4                TM_UART5
                0x200000d4                TM_USART6
 .data          0x200000e4       0x1e ..\obj\SI7021.o
                0x200000e4                RH_READ
                0x200000e8                TEMP_READ
                0x200000ec                POST_RH_TEMP_READ
                0x200000f0                SI7021_RESET
                0x200000f4                USER1_READ
                0x200000f8                USER1_WRITE
                0x200000fc                SERIAL1_READ
                0x20000100                SERIAL2_READ
 *fill*         0x20000102        0x2 
 .data          0x20000104        0xc ..\obj\tm_stm32f4_i2c.o
 .data          0x20000110       0x14 ..\obj\system_stm32f4xx.o
                0x20000110                SystemCoreClock
                0x20000114                AHBPrescTable
 .data          0x20000124       0x18 ..\obj\tm_stm32f4_rtc.o
                0x20000124                TM_RTC_Months
 .data          0x2000013c        0x4 ..\obj\dhcp.o
 .data.__fdlib_version
                0x20000140        0x1 c:/gcc_arm/49/bin/../lib/gcc/arm-none-eabi/4.9.3/../../../../arm-none-eabi/lib/armv7e-m/fpu\libm.a(lib_a-s_lib_ver.o)
                0x20000140                __fdlib_version
 *fill*         0x20000141        0x7 
 .data.impure_data
                0x20000148      0x428 c:/gcc_arm/49/bin/../lib/gcc/arm-none-eabi/4.9.3/../../../../arm-none-eabi/lib/armv7e-m/fpu\libg.a(lib_a-impure.o)
 .data._impure_ptr
                0x20000570        0x4 c:/gcc_arm/49/bin/../lib/gcc/arm-none-eabi/4.9.3/../../../../arm-none-eabi/lib/armv7e-m/fpu\libg.a(lib_a-impure.o)
                0x20000570                _impure_ptr
 .data.__malloc_av_
                0x20000574      0x408 c:/gcc_arm/49/bin/../lib/gcc/arm-none-eabi/4.9.3/../../../../arm-none-eabi/lib/armv7e-m/fpu\libg.a(lib_a-mallocr.o)
                0x20000574                __malloc_av_
 .data.__malloc_trim_threshold
                0x2000097c        0x4 c:/gcc_arm/49/bin/../lib/gcc/arm-none-eabi/4.9.3/../../../../arm-none-eabi/lib/armv7e-m/fpu\libg.a(lib_a-mallocr.o)
                0x2000097c                __malloc_trim_threshold
 .data.__malloc_sbrk_base
                0x20000980        0x4 c:/gcc_arm/49/bin/../lib/gcc/arm-none-eabi/4.9.3/../../../../arm-none-eabi/lib/armv7e-m/fpu\libg.a(lib_a-mallocr.o)
                0x20000980                __malloc_sbrk_base
 .data.__ctype_ptr__
                0x20000984        0x4 c:/gcc_arm/49/bin/../lib/gcc/arm-none-eabi/4.9.3/../../../../arm-none-eabi/lib/armv7e-m/fpu\libg.a(lib_a-ctype_.o)
                0x20000984                __ctype_ptr__
 .data.lconv    0x20000988       0x38 c:/gcc_arm/49/bin/../lib/gcc/arm-none-eabi/4.9.3/../../../../arm-none-eabi/lib/armv7e-m/fpu\libg.a(lib_a-locale.o)
 .data.lc_ctype_charset
                0x200009c0       0x20 c:/gcc_arm/49/bin/../lib/gcc/arm-none-eabi/4.9.3/../../../../arm-none-eabi/lib/armv7e-m/fpu\libg.a(lib_a-locale.o)
 .data.__mb_cur_max
                0x200009e0        0x4 c:/gcc_arm/49/bin/../lib/gcc/arm-none-eabi/4.9.3/../../../../arm-none-eabi/lib/armv7e-m/fpu\libg.a(lib_a-locale.o)
                0x200009e0                __mb_cur_max
 .data.__wctomb
                0x200009e4        0x4 c:/gcc_arm/49/bin/../lib/gcc/arm-none-eabi/4.9.3/../../../../arm-none-eabi/lib/armv7e-m/fpu\libg.a(lib_a-wctomb_r.o)
                0x200009e4                __wctomb
                0x200009e8                . = ALIGN (0x4)
                0x200009e8                PROVIDE (__preinit_array_start, .)
 *(.preinit_array)
                0x200009e8                PROVIDE (__preinit_array_end, .)
                0x200009e8                . = ALIGN (0x4)
                0x200009e8                PROVIDE (__init_array_start, .)
 *(SORT(.init_array.*))
 *(.init_array)
                0x200009e8                PROVIDE (__init_array_end, .)
                0x200009e8                . = ALIGN (0x4)
                0x200009e8                PROVIDE (__fini_array_start, .)
 *(SORT(.fini_array.*))
 *(.fini_array)
                0x200009e8                PROVIDE (__fini_array_end, .)
 *(.jcr*)
                0x200009e8                . = ALIGN (0x4)
                0x200009e8                __data_end__ = .
                0x200009e8                _edata = __data_end__

.igot.plt       0x200009e8        0x0 load address 0x0801bf90
 .igot.plt      0x00000000        0x0 ..\obj\stm32f4xx_syscfg.o

.bss            0x200009e8     0x9d48 load address 0x0801bf90
                0x200009e8                . = ALIGN (0x4)
                0x200009e8                __bss_start__ = .
                0x200009e8                _sbss = __bss_start__
 *(.bss*)
 .bss           0x200009e8     0x2821 ..\obj\mem.o
 *fill*         0x20003209        0x3 
 .bss           0x2000320c      0x43c ..\obj\cmdline.o
 .bss           0x20003648       0x30 ..\obj\tcp_in.o
 .bss           0x20003678     0x2687 ..\obj\memp.o
 *fill*         0x20005cff        0x1 
 .bss           0x20005d00      0x14c ..\obj\tm_stm32f4_gps.o
                0x20005e47                GPGSV_StatementsCount
                0x20005e48                GPSGV_StatementNumber
                0x20005e49                GPGSV_Term_Number
                0x20005e4a                GPGSV_Term_Mod
 .bss           0x20005e4c      0x5e8 ..\obj\ip_frag.o
 .bss           0x20006434       0x2c ..\obj\tm_stm32f4_button.o
 .bss           0x20006460        0x5 ..\obj\stm32f4x7_eth_bsp.o
                0x20006460                EthInitStatus
                0x20006464                EthLinkStatus
 *fill*         0x20006465        0x3 
 .bss           0x20006468       0x15 ..\obj\etharp.o
 *fill*         0x2000647d        0x3 
 .bss           0x20006480       0x28 ..\obj\tm_stm32f4_delay.o
                0x20006480                TM_TimingDelay
                0x20006484                TM_Time
                0x20006488                TM_Time2
                0x2000648c                TM_DELAY_Initialized
 .bss           0x200064a8        0x1 ..\obj\SI7021.o
                0x200064a8                _si_exists
 *fill*         0x200064a9        0x3 
 .bss           0x200064ac        0x4 ..\obj\tm_stm32f4_i2c.o
 .bss           0x200064b0        0x1 ..\obj\netif.o
 *fill*         0x200064b1        0x3 
 .bss           0x200064b4        0x4 ..\obj\syscalls.o
 .bss           0x200064b8        0x4 ..\obj\tm_stm32f4_rtc.o
                0x200064b8                TM_RTC_Status
 .bss           0x200064bc        0x2 ..\obj\ip.o
 *fill*         0x200064be        0x2 
 .bss           0x200064c0       0x16 ..\obj\tm_stm32f4_gpio.o
 *fill*         0x200064d6        0x2 
 .bss           0x200064d8        0x4 ..\obj\raw.o
 .bss.__malloc_max_total_mem
                0x200064dc        0x4 c:/gcc_arm/49/bin/../lib/gcc/arm-none-eabi/4.9.3/../../../../arm-none-eabi/lib/armv7e-m/fpu\libg.a(lib_a-mallocr.o)
                0x200064dc                __malloc_max_total_mem
 .bss.__malloc_max_sbrked_mem
                0x200064e0        0x4 c:/gcc_arm/49/bin/../lib/gcc/arm-none-eabi/4.9.3/../../../../arm-none-eabi/lib/armv7e-m/fpu\libg.a(lib_a-mallocr.o)
                0x200064e0                __malloc_max_sbrked_mem
 .bss.__malloc_top_pad
                0x200064e4        0x4 c:/gcc_arm/49/bin/../lib/gcc/arm-none-eabi/4.9.3/../../../../arm-none-eabi/lib/armv7e-m/fpu\libg.a(lib_a-mallocr.o)
                0x200064e4                __malloc_top_pad
 .bss.__malloc_current_mallinfo
                0x200064e8       0x28 c:/gcc_arm/49/bin/../lib/gcc/arm-none-eabi/4.9.3/../../../../arm-none-eabi/lib/armv7e-m/fpu\libg.a(lib_a-mallocr.o)
                0x200064e8                __malloc_current_mallinfo
 *(COMMON)
 COMMON         0x20006510       0x49 ..\obj\udp_echoclient.o
                0x20006510                gsm_state
                0x20006511                onOffPin
                0x20006514                data
                0x20006554                pin
 *fill*         0x20006559        0x3 
 COMMON         0x2000655c       0x8c ..\obj\cmdline.o
                0x2000655c                CmdlineBufferLength
                0x20006560                CmdlineExecFunction
                0x20006564                CmdlineNumCommands
                0x20006565                CmdlineInputVT100State
                0x20006566                CmdlineBufferEditPos
                0x20006568                CmdlineBuffer
                0x200065a8                CmdlineHistory
 COMMON         0x200065e8       0x18 ..\obj\tcp.o
                0x200065e8                tcp_active_pcbs
                0x200065ec                tcp_ticks
                0x200065f0                tcp_listen_pcbs
                0x200065f4                tcp_tmp_pcb
                0x200065f8                tcp_bound_pcbs
                0x200065fc                tcp_tw_pcbs
 COMMON         0x20006600        0x4 ..\obj\tcp_in.o
                0x20006600                tcp_input_pcb
 COMMON         0x20006604     0x3ce4 ..\obj\stm32f4x7_eth.o
                0x20006604                RX_Frame_Descriptor
                0x20006610                DMARxDescToGet
                0x20006614                DMATxDescToSet
                0x20006618                DMATxDscrTab
                0x200066b8                Rx_Buff
                0x2000847c                Frame_Rx_index
                0x20008480                DMA_RX_FRAME_infos
                0x20008484                DMARxDscrTab
                0x20008524                Tx_Buff
 COMMON         0x2000a2e8       0x3d ..\obj\main.o
                0x2000a2e8                conf
                0x2000a324                bt_cnt
 *fill*         0x2000a325        0x3 
 COMMON         0x2000a328       0x38 ..\obj\netconf.o
                0x2000a328                netif
 COMMON         0x2000a360       0x98 ..\obj\cmdline_functions.o
                0x2000a360                vShuntMax
                0x2000a364                rShunt
                0x2000a368                vBusMax
                0x2000a36c                buffer
                0x2000a3ec                currentLSB
                0x2000a3f0                SysBootLoader
                0x2000a3f4                powerLSB
 COMMON         0x2000a3f8      0x300 ..\obj\tm_stm32f4_usart.o
                0x2000a3f8                TM_UART5_Buffer
                0x2000a478                TM_USART6_Buffer
                0x2000a4f8                TM_USART3_Buffer
                0x2000a578                TM_USART2_Buffer
                0x2000a5f8                TM_USART1_Buffer
                0x2000a678                TM_UART4_Buffer
 COMMON         0x2000a6f8        0x8 ..\obj\netif.o
                0x2000a6f8                netif_list
                0x2000a6fc                netif_default
 COMMON         0x2000a700       0x20 ..\obj\tm_stm32f4_rtc.o
                0x2000a700                RTC_TimeStruct
                0x2000a704                RTC_InitStruct
                0x2000a710                RTC_DateStruct
                0x2000a714                NVIC_InitStruct
                0x2000a718                EXTI_InitStruct
 COMMON         0x2000a720        0x4 ..\obj\udp.o
                0x2000a720                udp_pcbs
 COMMON         0x2000a724        0x8 ..\obj\ip.o
                0x2000a724                current_netif
                0x2000a728                current_header
 COMMON         0x2000a72c        0x4 c:/gcc_arm/49/bin/../lib/gcc/arm-none-eabi/4.9.3/../../../../arm-none-eabi/lib/armv7e-m/fpu\libg.a(lib_a-reent.o)
                0x2000a72c                errno
                0x2000a730                . = ALIGN (0x4)
                0x2000a730                __bss_end__ = .
                0x2000a730                _ebss = __bss_end__

.heap           0x2000a730        0x0
                0x2000a730                __end__ = .
                0x2000a730                _end = __end__
                0x2000a730                end = __end__
 *(.heap*)
                0x2000a730                __HeapLimit = .

.co_stack       0x2000a730     0x1000 load address 0x08025cd8
                0x2000a730                . = ALIGN (0x8)
 *(.co_stack .co_stack.*)
 .co_stack      0x2000a730     0x1000 ..\obj\startup_stm32f4xx.o
                0x2000a730                pulStack
                0x20020000                __StackTop = (ORIGIN (ram) + 0x20000)
                0x2001f000                __StackLimit = (__StackTop - SIZEOF (.co_stack))
                0x20020000                PROVIDE (__stack, __StackTop)
                0x00000001                ASSERT ((__StackLimit >= __HeapLimit), region ram  overflowed with stack)
LOAD ..\obj\stm32f4xx_syscfg.o
LOAD ..\obj\mem.o
LOAD ..\obj\udp_echoclient.o
LOAD ..\obj\cmdline.o
LOAD ..\obj\tcp.o
LOAD ..\obj\gsm.o
LOAD ..\obj\tm_stm32f4_exti.o
LOAD ..\obj\INA219.o
LOAD ..\obj\err.o
LOAD ..\obj\tm_stm32f4_rcc.o
LOAD ..\obj\tm_stm32f4_bkpsram.o
LOAD ..\obj\tcp_in.o
LOAD ..\obj\stm32f4xx_usart.o
LOAD ..\obj\stm32f4xx_pwr.o
LOAD ..\obj\slipif.o
LOAD ..\obj\memp.o
LOAD ..\obj\autoip.o
LOAD ..\obj\tm_stm32f4_adc.o
LOAD ..\obj\tm_stm32f4_gps.o
LOAD ..\obj\ip_frag.o
LOAD ..\obj\netbuf.o
LOAD ..\obj\tcpip.o
LOAD ..\obj\sfp.o
LOAD ..\obj\startup_stm32f4xx.o
LOAD ..\obj\tm_stm32f4_id.o
LOAD ..\obj\stm32f4x7_eth.o
LOAD ..\obj\sys.o
LOAD ..\obj\ip_addr.o
LOAD ..\obj\inet_chksum.o
LOAD ..\obj\main.o
LOAD ..\obj\tm_stm32f4_button.o
LOAD ..\obj\stm32f4xx_rcc.o
LOAD ..\obj\vt100.o
LOAD ..\obj\netconf.o
LOAD ..\obj\netdb.o
LOAD ..\obj\cmdline_functions.o
LOAD ..\obj\tm_stm32f4_usart.o
LOAD ..\obj\init.o
LOAD ..\obj\stm32f4x7_eth_bsp.o
LOAD ..\obj\stm32f4xx_adc.o
LOAD ..\obj\ethernetif.o
LOAD ..\obj\etharp.o
LOAD ..\obj\tm_stm32f4_delay.o
LOAD ..\obj\SI7021.o
LOAD ..\obj\pbuf.o
LOAD ..\obj\stats.o
LOAD ..\obj\inet.o
LOAD ..\obj\tm_stm32f4_i2c.o
LOAD ..\obj\netif.o
LOAD ..\obj\api_msg.o
LOAD ..\obj\stm32f4xx_gpio.o
LOAD ..\obj\system_stm32f4xx.o
LOAD ..\obj\syscalls.o
LOAD ..\obj\stm32f4xx_dma.o
LOAD ..\obj\tm_stm32f4_rtc.o
LOAD ..\obj\sockets.o
LOAD ..\obj\igmp.o
LOAD ..\obj\utilities_new.o
LOAD ..\obj\udp.o
LOAD ..\obj\ip.o
LOAD ..\obj\stm32f4xx_i2c.o
LOAD ..\obj\stm32f4xx_exti.o
LOAD ..\obj\icmp.o
LOAD ..\obj\dns.o
LOAD ..\obj\netifapi.o
LOAD ..\obj\misc.o
LOAD ..\obj\api_lib.o
LOAD ..\obj\dhcp.o
LOAD ..\obj\tm_stm32f4_low_power.o
LOAD ..\obj\tm_stm32f4_gpio.o
LOAD ..\obj\stm32f4xx_rtc.o
LOAD ..\obj\tm_stm32f4_timer_properties.o
LOAD ..\obj\stm32f4xx_tim.o
LOAD ..\obj\tcp_out.o
LOAD ..\obj\loopif.o
LOAD ..\obj\raw.o
LOAD c:/gcc_arm/49/bin/../lib/gcc/arm-none-eabi/4.9.3/../../../../arm-none-eabi/lib/armv7e-m/fpu\libm.a
START GROUP
LOAD c:/gcc_arm/49/bin/../lib/gcc/arm-none-eabi/4.9.3/armv7e-m/fpu\libgcc.a
LOAD c:/gcc_arm/49/bin/../lib/gcc/arm-none-eabi/4.9.3/../../../../arm-none-eabi/lib/armv7e-m/fpu\libg.a
LOAD c:/gcc_arm/49/bin/../lib/gcc/arm-none-eabi/4.9.3/../../../../arm-none-eabi/lib/armv7e-m/fpu\libc.a
END GROUP
OUTPUT(Remote_Dev.elf elf32-littlearm)

.debug_info     0x00000000    0x21431
 .debug_info    0x00000000      0x290 ..\obj\stm32f4xx_syscfg.o
 .debug_info    0x00000290      0x345 ..\obj\mem.o
 .debug_info    0x000005d5      0xc2f ..\obj\udp_echoclient.o
 .debug_info    0x00001204      0x4d9 ..\obj\cmdline.o
 .debug_info    0x000016dd     0x1143 ..\obj\tcp.o
 .debug_info    0x00002820      0x671 ..\obj\gsm.o
 .debug_info    0x00002e91      0x8e8 ..\obj\tm_stm32f4_exti.o
 .debug_info    0x00003779      0x6ef ..\obj\INA219.o
 .debug_info    0x00003e68      0x2e6 ..\obj\tm_stm32f4_bkpsram.o
 .debug_info    0x0000414e      0xbeb ..\obj\tcp_in.o
 .debug_info    0x00004d39      0x9c2 ..\obj\stm32f4xx_usart.o
 .debug_info    0x000056fb      0x619 ..\obj\stm32f4xx_pwr.o
 .debug_info    0x00005d14      0x253 ..\obj\memp.o
 .debug_info    0x00005f67      0x653 ..\obj\autoip.o
 .debug_info    0x000065ba      0xa1d ..\obj\tm_stm32f4_adc.o
 .debug_info    0x00006fd7      0xadc ..\obj\tm_stm32f4_gps.o
 .debug_info    0x00007ab3      0x8a9 ..\obj\ip_frag.o
 .debug_info    0x0000835c      0x7e9 ..\obj\sfp.o
 .debug_info    0x00008b45       0xed ..\obj\startup_stm32f4xx.o
 .debug_info    0x00008c32     0x18f9 ..\obj\stm32f4x7_eth.o
 .debug_info    0x0000a52b      0x2ff ..\obj\ip_addr.o
 .debug_info    0x0000a82a      0x2a0 ..\obj\inet_chksum.o
 .debug_info    0x0000aaca      0x61a ..\obj\main.o
 .debug_info    0x0000b0e4      0x444 ..\obj\tm_stm32f4_button.o
 .debug_info    0x0000b528      0xe42 ..\obj\stm32f4xx_rcc.o
 .debug_info    0x0000c36a      0x7a8 ..\obj\netconf.o
 .debug_info    0x0000cb12     0x144b ..\obj\cmdline_functions.o
 .debug_info    0x0000df5d      0xf4f ..\obj\tm_stm32f4_usart.o
 .debug_info    0x0000eeac      0xbe9 ..\obj\stm32f4x7_eth_bsp.o
 .debug_info    0x0000fa95      0xc38 ..\obj\stm32f4xx_adc.o
 .debug_info    0x000106cd      0xad2 ..\obj\ethernetif.o
 .debug_info    0x0001119f      0xef1 ..\obj\etharp.o
 .debug_info    0x00012090      0x9f1 ..\obj\tm_stm32f4_delay.o
 .debug_info    0x00012a81      0x665 ..\obj\SI7021.o
 .debug_info    0x000130e6      0x667 ..\obj\pbuf.o
 .debug_info    0x0001374d      0x2e1 ..\obj\inet.o
 .debug_info    0x00013a2e      0xaa6 ..\obj\tm_stm32f4_i2c.o
 .debug_info    0x000144d4      0xe3c ..\obj\netif.o
 .debug_info    0x00015310      0x605 ..\obj\stm32f4xx_gpio.o
 .debug_info    0x00015915      0x5d6 ..\obj\system_stm32f4xx.o
 .debug_info    0x00015eeb      0x534 ..\obj\syscalls.o
 .debug_info    0x0001641f      0xdcb ..\obj\tm_stm32f4_rtc.o
 .debug_info    0x000171ea     0x13d4 ..\obj\utilities_new.o
 .debug_info    0x000185be      0xabb ..\obj\udp.o
 .debug_info    0x00019079      0x8ba ..\obj\ip.o
 .debug_info    0x00019933      0xb87 ..\obj\stm32f4xx_i2c.o
 .debug_info    0x0001a4ba      0x338 ..\obj\stm32f4xx_exti.o
 .debug_info    0x0001a7f2      0x591 ..\obj\icmp.o
 .debug_info    0x0001ad83      0x53d ..\obj\misc.o
 .debug_info    0x0001b2c0     0x1057 ..\obj\dhcp.o
 .debug_info    0x0001c317      0x1d9 ..\obj\tm_stm32f4_low_power.o
 .debug_info    0x0001c4f0      0x851 ..\obj\tm_stm32f4_gpio.o
 .debug_info    0x0001cd41     0x10df ..\obj\stm32f4xx_rtc.o
 .debug_info    0x0001de20      0x642 ..\obj\tm_stm32f4_timer_properties.o
 .debug_info    0x0001e462     0x1c61 ..\obj\stm32f4xx_tim.o
 .debug_info    0x000200c3      0xcde ..\obj\tcp_out.o
 .debug_info    0x00020da1      0x690 ..\obj\raw.o

.debug_abbrev   0x00000000     0x6234
 .debug_abbrev  0x00000000      0x131 ..\obj\stm32f4xx_syscfg.o
 .debug_abbrev  0x00000131      0x15e ..\obj\mem.o
 .debug_abbrev  0x0000028f      0x289 ..\obj\udp_echoclient.o
 .debug_abbrev  0x00000518      0x1b8 ..\obj\cmdline.o
 .debug_abbrev  0x000006d0      0x2c4 ..\obj\tcp.o
 .debug_abbrev  0x00000994      0x218 ..\obj\gsm.o
 .debug_abbrev  0x00000bac      0x1a4 ..\obj\tm_stm32f4_exti.o
 .debug_abbrev  0x00000d50      0x196 ..\obj\INA219.o
 .debug_abbrev  0x00000ee6       0xc5 ..\obj\tm_stm32f4_bkpsram.o
 .debug_abbrev  0x00000fab      0x1e9 ..\obj\tcp_in.o
 .debug_abbrev  0x00001194      0x155 ..\obj\stm32f4xx_usart.o
 .debug_abbrev  0x000012e9      0x17f ..\obj\stm32f4xx_pwr.o
 .debug_abbrev  0x00001468      0x11e ..\obj\memp.o
 .debug_abbrev  0x00001586      0x1a5 ..\obj\autoip.o
 .debug_abbrev  0x0000172b      0x183 ..\obj\tm_stm32f4_adc.o
 .debug_abbrev  0x000018ae      0x238 ..\obj\tm_stm32f4_gps.o
 .debug_abbrev  0x00001ae6      0x1df ..\obj\ip_frag.o
 .debug_abbrev  0x00001cc5      0x18d ..\obj\sfp.o
 .debug_abbrev  0x00001e52       0xb0 ..\obj\startup_stm32f4xx.o
 .debug_abbrev  0x00001f02      0x233 ..\obj\stm32f4x7_eth.o
 .debug_abbrev  0x00002135       0xf3 ..\obj\ip_addr.o
 .debug_abbrev  0x00002228      0x13c ..\obj\inet_chksum.o
 .debug_abbrev  0x00002364      0x1a7 ..\obj\main.o
 .debug_abbrev  0x0000250b      0x181 ..\obj\tm_stm32f4_button.o
 .debug_abbrev  0x0000268c      0x1ba ..\obj\stm32f4xx_rcc.o
 .debug_abbrev  0x00002846      0x170 ..\obj\netconf.o
 .debug_abbrev  0x000029b6      0x35c ..\obj\cmdline_functions.o
 .debug_abbrev  0x00002d12      0x243 ..\obj\tm_stm32f4_usart.o
 .debug_abbrev  0x00002f55      0x1ef ..\obj\stm32f4x7_eth_bsp.o
 .debug_abbrev  0x00003144      0x196 ..\obj\stm32f4xx_adc.o
 .debug_abbrev  0x000032da      0x21b ..\obj\ethernetif.o
 .debug_abbrev  0x000034f5      0x20a ..\obj\etharp.o
 .debug_abbrev  0x000036ff      0x264 ..\obj\tm_stm32f4_delay.o
 .debug_abbrev  0x00003963      0x230 ..\obj\SI7021.o
 .debug_abbrev  0x00003b93      0x1a3 ..\obj\pbuf.o
 .debug_abbrev  0x00003d36      0x130 ..\obj\inet.o
 .debug_abbrev  0x00003e66      0x1e8 ..\obj\tm_stm32f4_i2c.o
 .debug_abbrev  0x0000404e      0x256 ..\obj\netif.o
 .debug_abbrev  0x000042a4      0x1a3 ..\obj\stm32f4xx_gpio.o
 .debug_abbrev  0x00004447      0x136 ..\obj\system_stm32f4xx.o
 .debug_abbrev  0x0000457d      0x16d ..\obj\syscalls.o
 .debug_abbrev  0x000046ea      0x21c ..\obj\tm_stm32f4_rtc.o
 .debug_abbrev  0x00004906      0x2f4 ..\obj\utilities_new.o
 .debug_abbrev  0x00004bfa      0x20c ..\obj\udp.o
 .debug_abbrev  0x00004e06      0x195 ..\obj\ip.o
 .debug_abbrev  0x00004f9b      0x164 ..\obj\stm32f4xx_i2c.o
 .debug_abbrev  0x000050ff      0x1a5 ..\obj\stm32f4xx_exti.o
 .debug_abbrev  0x000052a4      0x19a ..\obj\icmp.o
 .debug_abbrev  0x0000543e      0x145 ..\obj\misc.o
 .debug_abbrev  0x00005583      0x21a ..\obj\dhcp.o
 .debug_abbrev  0x0000579d      0x110 ..\obj\tm_stm32f4_low_power.o
 .debug_abbrev  0x000058ad      0x14f ..\obj\tm_stm32f4_gpio.o
 .debug_abbrev  0x000059fc      0x1ae ..\obj\stm32f4xx_rtc.o
 .debug_abbrev  0x00005baa      0x128 ..\obj\tm_stm32f4_timer_properties.o
 .debug_abbrev  0x00005cd2      0x187 ..\obj\stm32f4xx_tim.o
 .debug_abbrev  0x00005e59      0x224 ..\obj\tcp_out.o
 .debug_abbrev  0x0000607d      0x1b7 ..\obj\raw.o

.debug_aranges  0x00000000     0x2300
 .debug_aranges
                0x00000000       0x50 ..\obj\stm32f4xx_syscfg.o
 .debug_aranges
                0x00000050       0x48 ..\obj\mem.o
 .debug_aranges
                0x00000098       0x58 ..\obj\udp_echoclient.o
 .debug_aranges
                0x000000f0       0x88 ..\obj\cmdline.o
 .debug_aranges
                0x00000178      0x110 ..\obj\tcp.o
 .debug_aranges
                0x00000288       0xb8 ..\obj\gsm.o
 .debug_aranges
                0x00000340       0x68 ..\obj\tm_stm32f4_exti.o
 .debug_aranges
                0x000003a8       0xb0 ..\obj\INA219.o
 .debug_aranges
                0x00000458       0x20 ..\obj\tm_stm32f4_bkpsram.o
 .debug_aranges
                0x00000478       0x48 ..\obj\tcp_in.o
 .debug_aranges
                0x000004c0      0x100 ..\obj\stm32f4xx_usart.o
 .debug_aranges
                0x000005c0       0xa8 ..\obj\stm32f4xx_pwr.o
 .debug_aranges
                0x00000668       0x30 ..\obj\memp.o
 .debug_aranges
                0x00000698       0x78 ..\obj\autoip.o
 .debug_aranges
                0x00000710       0xd0 ..\obj\tm_stm32f4_adc.o
 .debug_aranges
                0x000007e0       0x98 ..\obj\tm_stm32f4_gps.o
 .debug_aranges
                0x00000878       0x58 ..\obj\ip_frag.o
 .debug_aranges
                0x000008d0       0x50 ..\obj\sfp.o
 .debug_aranges
                0x00000920       0x28 ..\obj\startup_stm32f4xx.o
 .debug_aranges
                0x00000948      0x2b8 ..\obj\stm32f4x7_eth.o
 .debug_aranges
                0x00000c00       0x20 ..\obj\ip_addr.o
 .debug_aranges
                0x00000c20       0x38 ..\obj\inet_chksum.o
 .debug_aranges
                0x00000c58       0x38 ..\obj\main.o
 .debug_aranges
                0x00000c90       0x38 ..\obj\tm_stm32f4_button.o
 .debug_aranges
                0x00000cc8      0x1c0 ..\obj\stm32f4xx_rcc.o
 .debug_aranges
                0x00000e88       0x30 ..\obj\netconf.o
 .debug_aranges
                0x00000eb8       0xe0 ..\obj\cmdline_functions.o
 .debug_aranges
                0x00000f98       0xf8 ..\obj\tm_stm32f4_usart.o
 .debug_aranges
                0x00001090       0x40 ..\obj\stm32f4x7_eth_bsp.o
 .debug_aranges
                0x000010d0      0x148 ..\obj\stm32f4xx_adc.o
 .debug_aranges
                0x00001218       0x40 ..\obj\ethernetif.o
 .debug_aranges
                0x00001258       0x80 ..\obj\etharp.o
 .debug_aranges
                0x000012d8       0x78 ..\obj\tm_stm32f4_delay.o
 .debug_aranges
                0x00001350       0x88 ..\obj\SI7021.o
 .debug_aranges
                0x000013d8       0x80 ..\obj\pbuf.o
 .debug_aranges
                0x00001458       0x50 ..\obj\inet.o
 .debug_aranges
                0x000014a8       0xb0 ..\obj\tm_stm32f4_i2c.o
 .debug_aranges
                0x00001558       0x70 ..\obj\netif.o
 .debug_aranges
                0x000015c8       0x88 ..\obj\stm32f4xx_gpio.o
 .debug_aranges
                0x00001650       0x30 ..\obj\system_stm32f4xx.o
 .debug_aranges
                0x00001680       0x60 ..\obj\syscalls.o
 .debug_aranges
                0x000016e0       0xb0 ..\obj\tm_stm32f4_rtc.o
 .debug_aranges
                0x00001790       0xc0 ..\obj\utilities_new.o
 .debug_aranges
                0x00001850       0x68 ..\obj\udp.o
 .debug_aranges
                0x000018b8       0x38 ..\obj\ip.o
 .debug_aranges
                0x000018f0      0x130 ..\obj\stm32f4xx_i2c.o
 .debug_aranges
                0x00001a20       0x58 ..\obj\stm32f4xx_exti.o
 .debug_aranges
                0x00001a78       0x38 ..\obj\icmp.o
 .debug_aranges
                0x00001ab0       0x40 ..\obj\misc.o
 .debug_aranges
                0x00001af0      0x138 ..\obj\dhcp.o
 .debug_aranges
                0x00001c28       0x58 ..\obj\tm_stm32f4_low_power.o
 .debug_aranges
                0x00001c80       0x98 ..\obj\tm_stm32f4_gpio.o
 .debug_aranges
                0x00001d18      0x1e0 ..\obj\stm32f4xx_rtc.o
 .debug_aranges
                0x00001ef8       0x38 ..\obj\tm_stm32f4_timer_properties.o
 .debug_aranges
                0x00001f30      0x2f8 ..\obj\stm32f4xx_tim.o
 .debug_aranges
                0x00002228       0x80 ..\obj\tcp_out.o
 .debug_aranges
                0x000022a8       0x58 ..\obj\raw.o

.debug_ranges   0x00000000     0x1f70
 .debug_ranges  0x00000000       0x40 ..\obj\stm32f4xx_syscfg.o
 .debug_ranges  0x00000040       0x38 ..\obj\mem.o
 .debug_ranges  0x00000078       0x48 ..\obj\udp_echoclient.o
 .debug_ranges  0x000000c0       0x78 ..\obj\cmdline.o
 .debug_ranges  0x00000138      0x100 ..\obj\tcp.o
 .debug_ranges  0x00000238       0xa8 ..\obj\gsm.o
 .debug_ranges  0x000002e0       0x58 ..\obj\tm_stm32f4_exti.o
 .debug_ranges  0x00000338       0xa0 ..\obj\INA219.o
 .debug_ranges  0x000003d8       0x10 ..\obj\tm_stm32f4_bkpsram.o
 .debug_ranges  0x000003e8       0x38 ..\obj\tcp_in.o
 .debug_ranges  0x00000420       0xf0 ..\obj\stm32f4xx_usart.o
 .debug_ranges  0x00000510       0x98 ..\obj\stm32f4xx_pwr.o
 .debug_ranges  0x000005a8       0x20 ..\obj\memp.o
 .debug_ranges  0x000005c8       0x68 ..\obj\autoip.o
 .debug_ranges  0x00000630       0xc0 ..\obj\tm_stm32f4_adc.o
 .debug_ranges  0x000006f0       0x88 ..\obj\tm_stm32f4_gps.o
 .debug_ranges  0x00000778       0x48 ..\obj\ip_frag.o
 .debug_ranges  0x000007c0       0x40 ..\obj\sfp.o
 .debug_ranges  0x00000800       0x18 ..\obj\startup_stm32f4xx.o
 .debug_ranges  0x00000818      0x2a8 ..\obj\stm32f4x7_eth.o
 .debug_ranges  0x00000ac0       0x10 ..\obj\ip_addr.o
 .debug_ranges  0x00000ad0       0x28 ..\obj\inet_chksum.o
 .debug_ranges  0x00000af8       0x28 ..\obj\main.o
 .debug_ranges  0x00000b20       0x28 ..\obj\tm_stm32f4_button.o
 .debug_ranges  0x00000b48      0x1b0 ..\obj\stm32f4xx_rcc.o
 .debug_ranges  0x00000cf8       0x20 ..\obj\netconf.o
 .debug_ranges  0x00000d18       0xd0 ..\obj\cmdline_functions.o
 .debug_ranges  0x00000de8       0xe8 ..\obj\tm_stm32f4_usart.o
 .debug_ranges  0x00000ed0       0x30 ..\obj\stm32f4x7_eth_bsp.o
 .debug_ranges  0x00000f00      0x138 ..\obj\stm32f4xx_adc.o
 .debug_ranges  0x00001038       0x30 ..\obj\ethernetif.o
 .debug_ranges  0x00001068       0x70 ..\obj\etharp.o
 .debug_ranges  0x000010d8       0x68 ..\obj\tm_stm32f4_delay.o
 .debug_ranges  0x00001140       0x78 ..\obj\SI7021.o
 .debug_ranges  0x000011b8       0x70 ..\obj\pbuf.o
 .debug_ranges  0x00001228       0x40 ..\obj\inet.o
 .debug_ranges  0x00001268       0xa0 ..\obj\tm_stm32f4_i2c.o
 .debug_ranges  0x00001308       0x60 ..\obj\netif.o
 .debug_ranges  0x00001368       0x78 ..\obj\stm32f4xx_gpio.o
 .debug_ranges  0x000013e0       0x20 ..\obj\system_stm32f4xx.o
 .debug_ranges  0x00001400       0x50 ..\obj\syscalls.o
 .debug_ranges  0x00001450       0xa0 ..\obj\tm_stm32f4_rtc.o
 .debug_ranges  0x000014f0       0xb0 ..\obj\utilities_new.o
 .debug_ranges  0x000015a0       0x58 ..\obj\udp.o
 .debug_ranges  0x000015f8       0x28 ..\obj\ip.o
 .debug_ranges  0x00001620      0x120 ..\obj\stm32f4xx_i2c.o
 .debug_ranges  0x00001740       0x48 ..\obj\stm32f4xx_exti.o
 .debug_ranges  0x00001788       0x28 ..\obj\icmp.o
 .debug_ranges  0x000017b0       0x30 ..\obj\misc.o
 .debug_ranges  0x000017e0      0x128 ..\obj\dhcp.o
 .debug_ranges  0x00001908       0x48 ..\obj\tm_stm32f4_low_power.o
 .debug_ranges  0x00001950       0x88 ..\obj\tm_stm32f4_gpio.o
 .debug_ranges  0x000019d8      0x1d0 ..\obj\stm32f4xx_rtc.o
 .debug_ranges  0x00001ba8       0x28 ..\obj\tm_stm32f4_timer_properties.o
 .debug_ranges  0x00001bd0      0x2e8 ..\obj\stm32f4xx_tim.o
 .debug_ranges  0x00001eb8       0x70 ..\obj\tcp_out.o
 .debug_ranges  0x00001f28       0x48 ..\obj\raw.o

.debug_line     0x00000000     0xe21f
 .debug_line    0x00000000      0x1de ..\obj\stm32f4xx_syscfg.o
 .debug_line    0x000001de      0x23d ..\obj\mem.o
 .debug_line    0x0000041b      0x46e ..\obj\udp_echoclient.o
 .debug_line    0x00000889      0x41d ..\obj\cmdline.o
 .debug_line    0x00000ca6      0x798 ..\obj\tcp.o
 .debug_line    0x0000143e      0x414 ..\obj\gsm.o
 .debug_line    0x00001852      0x2fc ..\obj\tm_stm32f4_exti.o
 .debug_line    0x00001b4e      0x3bb ..\obj\INA219.o
 .debug_line    0x00001f09      0x179 ..\obj\tm_stm32f4_bkpsram.o
 .debug_line    0x00002082      0x6f1 ..\obj\tcp_in.o
 .debug_line    0x00002773      0x45a ..\obj\stm32f4xx_usart.o
 .debug_line    0x00002bcd      0x2f4 ..\obj\stm32f4xx_pwr.o
 .debug_line    0x00002ec1      0x197 ..\obj\memp.o
 .debug_line    0x00003058      0x392 ..\obj\autoip.o
 .debug_line    0x000033ea      0x402 ..\obj\tm_stm32f4_adc.o
 .debug_line    0x000037ec      0x49c ..\obj\tm_stm32f4_gps.o
 .debug_line    0x00003c88      0x3b6 ..\obj\ip_frag.o
 .debug_line    0x0000403e      0x39f ..\obj\sfp.o
 .debug_line    0x000043dd       0x9f ..\obj\startup_stm32f4xx.o
 .debug_line    0x0000447c      0xaf2 ..\obj\stm32f4x7_eth.o
 .debug_line    0x00004f6e      0x1b2 ..\obj\ip_addr.o
 .debug_line    0x00005120      0x214 ..\obj\inet_chksum.o
 .debug_line    0x00005334      0x2b3 ..\obj\main.o
 .debug_line    0x000055e7      0x222 ..\obj\tm_stm32f4_button.o
 .debug_line    0x00005809      0x60e ..\obj\stm32f4xx_rcc.o
 .debug_line    0x00005e17      0x345 ..\obj\netconf.o
 .debug_line    0x0000615c      0x59e ..\obj\cmdline_functions.o
 .debug_line    0x000066fa      0x4f2 ..\obj\tm_stm32f4_usart.o
 .debug_line    0x00006bec      0x389 ..\obj\stm32f4x7_eth_bsp.o
 .debug_line    0x00006f75      0x504 ..\obj\stm32f4xx_adc.o
 .debug_line    0x00007479      0x46c ..\obj\ethernetif.o
 .debug_line    0x000078e5      0x500 ..\obj\etharp.o
 .debug_line    0x00007de5      0x372 ..\obj\tm_stm32f4_delay.o
 .debug_line    0x00008157      0x360 ..\obj\SI7021.o
 .debug_line    0x000084b7      0x3e9 ..\obj\pbuf.o
 .debug_line    0x000088a0      0x27f ..\obj\inet.o
 .debug_line    0x00008b1f      0x3ee ..\obj\tm_stm32f4_i2c.o
 .debug_line    0x00008f0d      0x352 ..\obj\netif.o
 .debug_line    0x0000925f      0x2fb ..\obj\stm32f4xx_gpio.o
 .debug_line    0x0000955a      0x1b4 ..\obj\system_stm32f4xx.o
 .debug_line    0x0000970e      0x225 ..\obj\syscalls.o
 .debug_line    0x00009933      0x57d ..\obj\tm_stm32f4_rtc.o
 .debug_line    0x00009eb0      0x6d6 ..\obj\utilities_new.o
 .debug_line    0x0000a586      0x401 ..\obj\udp.o
 .debug_line    0x0000a987      0x30f ..\obj\ip.o
 .debug_line    0x0000ac96      0x4b7 ..\obj\stm32f4xx_i2c.o
 .debug_line    0x0000b14d      0x24e ..\obj\stm32f4xx_exti.o
 .debug_line    0x0000b39b      0x236 ..\obj\icmp.o
 .debug_line    0x0000b5d1      0x1f7 ..\obj\misc.o
 .debug_line    0x0000b7c8      0x858 ..\obj\dhcp.o
 .debug_line    0x0000c020      0x231 ..\obj\tm_stm32f4_low_power.o
 .debug_line    0x0000c251      0x33e ..\obj\tm_stm32f4_gpio.o
 .debug_line    0x0000c58f      0x7de ..\obj\stm32f4xx_rtc.o
 .debug_line    0x0000cd6d      0x29c ..\obj\tm_stm32f4_timer_properties.o
 .debug_line    0x0000d009      0xa1c ..\obj\stm32f4xx_tim.o
 .debug_line    0x0000da25      0x53b ..\obj\tcp_out.o
 .debug_line    0x0000df60      0x2bf ..\obj\raw.o

.debug_str      0x00000000     0xa5c7
 .debug_str     0x00000000      0x2d9 ..\obj\stm32f4xx_syscfg.o
                                0x337 (size before relaxing)
 .debug_str     0x000002d9      0x13c ..\obj\mem.o
                                0x286 (size before relaxing)
 .debug_str     0x00000415      0x897 ..\obj\udp_echoclient.o
                                0xb03 (size before relaxing)
 .debug_str     0x00000cac      0x29d ..\obj\cmdline.o
                                0x408 (size before relaxing)
 .debug_str     0x00000f49      0x563 ..\obj\tcp.o
                                0x835 (size before relaxing)
 .debug_str     0x000014ac      0x24c ..\obj\gsm.o
                                0x485 (size before relaxing)
 .debug_str     0x000016f8      0x960 ..\obj\tm_stm32f4_exti.o
                                0xb94 (size before relaxing)
 .debug_str     0x00002058      0x333 ..\obj\INA219.o
                                0x821 (size before relaxing)
 .debug_str     0x0000238b       0x6c ..\obj\tm_stm32f4_bkpsram.o
                                0x304 (size before relaxing)
 .debug_str     0x000023f7      0x15a ..\obj\tcp_in.o
                                0x6cc (size before relaxing)
 .debug_str     0x00002551      0x468 ..\obj\stm32f4xx_usart.o
                                0x6b8 (size before relaxing)
 .debug_str     0x000029b9      0x25b ..\obj\stm32f4xx_pwr.o
                                0x435 (size before relaxing)
 .debug_str     0x00002c14       0x9f ..\obj\memp.o
                                0x2c0 (size before relaxing)
 .debug_str     0x00002cb3      0x1d4 ..\obj\autoip.o
                                0x41e (size before relaxing)
 .debug_str     0x00002e87      0x542 ..\obj\tm_stm32f4_adc.o
                                0x94c (size before relaxing)
 .debug_str     0x000033c9      0x670 ..\obj\tm_stm32f4_gps.o
                                0x96c (size before relaxing)
 .debug_str     0x00003a39      0x235 ..\obj\ip_frag.o
                                0x58d (size before relaxing)
 .debug_str     0x00003c6e      0x14f ..\obj\sfp.o
                                0x6af (size before relaxing)
 .debug_str     0x00003dbd       0xad ..\obj\startup_stm32f4xx.o
                                0x170 (size before relaxing)
 .debug_str     0x00003e6a     0x11a1 ..\obj\stm32f4x7_eth.o
                               0x1491 (size before relaxing)
 .debug_str     0x0000500b       0x82 ..\obj\ip_addr.o
                                0x29f (size before relaxing)
 .debug_str     0x0000508d       0xb6 ..\obj\inet_chksum.o
                                0x280 (size before relaxing)
 .debug_str     0x00005143      0x186 ..\obj\main.o
                                0x54d (size before relaxing)
 .debug_str     0x000052c9      0x140 ..\obj\tm_stm32f4_button.o
                                0x49c (size before relaxing)
 .debug_str     0x00005409      0x673 ..\obj\stm32f4xx_rcc.o
                                0x9e7 (size before relaxing)
 .debug_str     0x00005a7c      0x20a ..\obj\netconf.o
                                0x52f (size before relaxing)
 .debug_str     0x00005c86      0x271 ..\obj\cmdline_functions.o
                                0xec5 (size before relaxing)
 .debug_str     0x00005ef7      0x430 ..\obj\tm_stm32f4_usart.o
                                0xec2 (size before relaxing)
 .debug_str     0x00006327      0x1e5 ..\obj\stm32f4x7_eth_bsp.o
                                0xeb9 (size before relaxing)
 .debug_str     0x0000650c      0x49b ..\obj\stm32f4xx_adc.o
                                0x82d (size before relaxing)
 .debug_str     0x000069a7       0xc0 ..\obj\ethernetif.o
                                0x720 (size before relaxing)
 .debug_str     0x00006a67      0x279 ..\obj\etharp.o
                                0x810 (size before relaxing)
 .debug_str     0x00006ce0      0x2ed ..\obj\tm_stm32f4_delay.o
                                0xb6f (size before relaxing)
 .debug_str     0x00006fcd      0x20e ..\obj\SI7021.o
                                0x525 (size before relaxing)
 .debug_str     0x000071db      0x189 ..\obj\pbuf.o
                                0x452 (size before relaxing)
 .debug_str     0x00007364       0x93 ..\obj\inet.o
                                0x229 (size before relaxing)
 .debug_str     0x000073f7      0x287 ..\obj\tm_stm32f4_i2c.o
                                0x6ea (size before relaxing)
 .debug_str     0x0000767e      0x106 ..\obj\netif.o
                                0x770 (size before relaxing)
 .debug_str     0x00007784      0x17f ..\obj\stm32f4xx_gpio.o
                                0x4c9 (size before relaxing)
 .debug_str     0x00007903       0xac ..\obj\system_stm32f4xx.o
                                0x3ff (size before relaxing)
 .debug_str     0x000079af      0x143 ..\obj\syscalls.o
                                0x3a9 (size before relaxing)
 .debug_str     0x00007af2      0x5e0 ..\obj\tm_stm32f4_rtc.o
                                0xefb (size before relaxing)
 .debug_str     0x000080d2      0x171 ..\obj\utilities_new.o
                                0xa4b (size before relaxing)
 .debug_str     0x00008243      0x15f ..\obj\udp.o
                                0x672 (size before relaxing)
 .debug_str     0x000083a2       0xc0 ..\obj\ip.o
                                0x553 (size before relaxing)
 .debug_str     0x00008462      0x353 ..\obj\stm32f4xx_i2c.o
                                0x6db (size before relaxing)
 .debug_str     0x000087b5       0xc4 ..\obj\stm32f4xx_exti.o
                                0x375 (size before relaxing)
 .debug_str     0x00008879       0xcd ..\obj\icmp.o
                                0x40c (size before relaxing)
 .debug_str     0x00008946       0xf9 ..\obj\misc.o
                                0x3f7 (size before relaxing)
 .debug_str     0x00008a3f      0x305 ..\obj\dhcp.o
                                0x7a7 (size before relaxing)
 .debug_str     0x00008d44      0x13a ..\obj\tm_stm32f4_low_power.o
                                0x2e2 (size before relaxing)
 .debug_str     0x00008e7e      0x1d4 ..\obj\tm_stm32f4_gpio.o
                                0x605 (size before relaxing)
 .debug_str     0x00009052      0x6f2 ..\obj\stm32f4xx_rtc.o
                                0xb71 (size before relaxing)
 .debug_str     0x00009744      0x1fc ..\obj\tm_stm32f4_timer_properties.o
                                0x5e3 (size before relaxing)
 .debug_str     0x00009940      0xa7e ..\obj\stm32f4xx_tim.o
                                0xdf9 (size before relaxing)
 .debug_str     0x0000a3be      0x151 ..\obj\tcp_out.o
                                0x6c4 (size before relaxing)
 .debug_str     0x0000a50f       0xb8 ..\obj\raw.o
                                0x42c (size before relaxing)

.comment        0x00000000       0x70
 .comment       0x00000000       0x70 ..\obj\stm32f4xx_syscfg.o
                                 0x71 (size before relaxing)
 .comment       0x00000000       0x71 ..\obj\mem.o
 .comment       0x00000000       0x71 ..\obj\udp_echoclient.o
 .comment       0x00000000       0x71 ..\obj\cmdline.o
 .comment       0x00000000       0x71 ..\obj\tcp.o
 .comment       0x00000000       0x71 ..\obj\gsm.o
 .comment       0x00000000       0x71 ..\obj\tm_stm32f4_exti.o
 .comment       0x00000000       0x71 ..\obj\INA219.o
 .comment       0x00000000       0x71 ..\obj\tm_stm32f4_bkpsram.o
 .comment       0x00000000       0x71 ..\obj\tcp_in.o
 .comment       0x00000000       0x71 ..\obj\stm32f4xx_usart.o
 .comment       0x00000000       0x71 ..\obj\stm32f4xx_pwr.o
 .comment       0x00000000       0x71 ..\obj\memp.o
 .comment       0x00000000       0x71 ..\obj\autoip.o
 .comment       0x00000000       0x71 ..\obj\tm_stm32f4_adc.o
 .comment       0x00000000       0x71 ..\obj\tm_stm32f4_gps.o
 .comment       0x00000000       0x71 ..\obj\ip_frag.o
 .comment       0x00000000       0x71 ..\obj\sfp.o
 .comment       0x00000000       0x71 ..\obj\startup_stm32f4xx.o
 .comment       0x00000000       0x71 ..\obj\stm32f4x7_eth.o
 .comment       0x00000000       0x71 ..\obj\ip_addr.o
 .comment       0x00000000       0x71 ..\obj\inet_chksum.o
 .comment       0x00000000       0x71 ..\obj\main.o
 .comment       0x00000000       0x71 ..\obj\tm_stm32f4_button.o
 .comment       0x00000000       0x71 ..\obj\stm32f4xx_rcc.o
 .comment       0x00000000       0x71 ..\obj\netconf.o
 .comment       0x00000000       0x71 ..\obj\cmdline_functions.o
 .comment       0x00000000       0x71 ..\obj\tm_stm32f4_usart.o
 .comment       0x00000000       0x71 ..\obj\stm32f4x7_eth_bsp.o
 .comment       0x00000000       0x71 ..\obj\stm32f4xx_adc.o
 .comment       0x00000000       0x71 ..\obj\ethernetif.o
 .comment       0x00000000       0x71 ..\obj\etharp.o
 .comment       0x00000000       0x71 ..\obj\tm_stm32f4_delay.o
 .comment       0x00000000       0x71 ..\obj\SI7021.o
 .comment       0x00000000       0x71 ..\obj\pbuf.o
 .comment       0x00000000       0x71 ..\obj\inet.o
 .comment       0x00000000       0x71 ..\obj\tm_stm32f4_i2c.o
 .comment       0x00000000       0x71 ..\obj\netif.o
 .comment       0x00000000       0x71 ..\obj\stm32f4xx_gpio.o
 .comment       0x00000000       0x71 ..\obj\system_stm32f4xx.o
 .comment       0x00000000       0x71 ..\obj\syscalls.o
 .comment       0x00000000       0x71 ..\obj\tm_stm32f4_rtc.o
 .comment       0x00000000       0x71 ..\obj\utilities_new.o
 .comment       0x00000000       0x71 ..\obj\udp.o
 .comment       0x00000000       0x71 ..\obj\ip.o
 .comment       0x00000000       0x71 ..\obj\stm32f4xx_i2c.o
 .comment       0x00000000       0x71 ..\obj\stm32f4xx_exti.o
 .comment       0x00000000       0x71 ..\obj\icmp.o
 .comment       0x00000000       0x71 ..\obj\misc.o
 .comment       0x00000000       0x71 ..\obj\dhcp.o
 .comment       0x00000000       0x71 ..\obj\tm_stm32f4_low_power.o
 .comment       0x00000000       0x71 ..\obj\tm_stm32f4_gpio.o
 .comment       0x00000000       0x71 ..\obj\stm32f4xx_rtc.o
 .comment       0x00000000       0x71 ..\obj\tm_stm32f4_timer_properties.o
 .comment       0x00000000       0x71 ..\obj\stm32f4xx_tim.o
 .comment       0x00000000       0x71 ..\obj\tcp_out.o
 .comment       0x00000000       0x71 ..\obj\raw.o

.ARM.attributes
                0x00000000       0x37
 .ARM.attributes
                0x00000000       0x39 ..\obj\stm32f4xx_syscfg.o
 .ARM.attributes
                0x00000039       0x39 ..\obj\mem.o
 .ARM.attributes
                0x00000072       0x39 ..\obj\udp_echoclient.o
 .ARM.attributes
                0x000000ab       0x39 ..\obj\cmdline.o
 .ARM.attributes
                0x000000e4       0x39 ..\obj\tcp.o
 .ARM.attributes
                0x0000011d       0x39 ..\obj\gsm.o
 .ARM.attributes
                0x00000156       0x39 ..\obj\tm_stm32f4_exti.o
 .ARM.attributes
                0x0000018f       0x39 ..\obj\INA219.o
 .ARM.attributes
                0x000001c8       0x39 ..\obj\tm_stm32f4_bkpsram.o
 .ARM.attributes
                0x00000201       0x39 ..\obj\tcp_in.o
 .ARM.attributes
                0x0000023a       0x39 ..\obj\stm32f4xx_usart.o
 .ARM.attributes
                0x00000273       0x39 ..\obj\stm32f4xx_pwr.o
 .ARM.attributes
                0x000002ac       0x39 ..\obj\memp.o
 .ARM.attributes
                0x000002e5       0x39 ..\obj\autoip.o
 .ARM.attributes
                0x0000031e       0x39 ..\obj\tm_stm32f4_adc.o
 .ARM.attributes
                0x00000357       0x39 ..\obj\tm_stm32f4_gps.o
 .ARM.attributes
                0x00000390       0x39 ..\obj\ip_frag.o
 .ARM.attributes
                0x000003c9       0x39 ..\obj\sfp.o
 .ARM.attributes
                0x00000402       0x39 ..\obj\startup_stm32f4xx.o
 .ARM.attributes
                0x0000043b       0x39 ..\obj\stm32f4x7_eth.o
 .ARM.attributes
                0x00000474       0x39 ..\obj\ip_addr.o
 .ARM.attributes
                0x000004ad       0x39 ..\obj\inet_chksum.o
 .ARM.attributes
                0x000004e6       0x39 ..\obj\main.o
 .ARM.attributes
                0x0000051f       0x39 ..\obj\tm_stm32f4_button.o
 .ARM.attributes
                0x00000558       0x39 ..\obj\stm32f4xx_rcc.o
 .ARM.attributes
                0x00000591       0x39 ..\obj\netconf.o
 .ARM.attributes
                0x000005ca       0x39 ..\obj\cmdline_functions.o
 .ARM.attributes
                0x00000603       0x39 ..\obj\tm_stm32f4_usart.o
 .ARM.attributes
                0x0000063c       0x39 ..\obj\stm32f4x7_eth_bsp.o
 .ARM.attributes
                0x00000675       0x39 ..\obj\stm32f4xx_adc.o
 .ARM.attributes
                0x000006ae       0x39 ..\obj\ethernetif.o
 .ARM.attributes
                0x000006e7       0x39 ..\obj\etharp.o
 .ARM.attributes
                0x00000720       0x39 ..\obj\tm_stm32f4_delay.o
 .ARM.attributes
                0x00000759       0x39 ..\obj\SI7021.o
 .ARM.attributes
                0x00000792       0x39 ..\obj\pbuf.o
 .ARM.attributes
                0x000007cb       0x39 ..\obj\inet.o
 .ARM.attributes
                0x00000804       0x39 ..\obj\tm_stm32f4_i2c.o
 .ARM.attributes
                0x0000083d       0x39 ..\obj\netif.o
 .ARM.attributes
                0x00000876       0x39 ..\obj\stm32f4xx_gpio.o
 .ARM.attributes
                0x000008af       0x39 ..\obj\system_stm32f4xx.o
 .ARM.attributes
                0x000008e8       0x39 ..\obj\syscalls.o
 .ARM.attributes
                0x00000921       0x39 ..\obj\tm_stm32f4_rtc.o
 .ARM.attributes
                0x0000095a       0x39 ..\obj\utilities_new.o
 .ARM.attributes
                0x00000993       0x39 ..\obj\udp.o
 .ARM.attributes
                0x000009cc       0x39 ..\obj\ip.o
 .ARM.attributes
                0x00000a05       0x39 ..\obj\stm32f4xx_i2c.o
 .ARM.attributes
                0x00000a3e       0x39 ..\obj\stm32f4xx_exti.o
 .ARM.attributes
                0x00000a77       0x39 ..\obj\icmp.o
 .ARM.attributes
                0x00000ab0       0x39 ..\obj\misc.o
 .ARM.attributes
                0x00000ae9       0x39 ..\obj\dhcp.o
 .ARM.attributes
                0x00000b22       0x39 ..\obj\tm_stm32f4_low_power.o
 .ARM.attributes
                0x00000b5b       0x39 ..\obj\tm_stm32f4_gpio.o
 .ARM.attributes
                0x00000b94       0x39 ..\obj\stm32f4xx_rtc.o
 .ARM.attributes
                0x00000bcd       0x39 ..\obj\tm_stm32f4_timer_properties.o
 .ARM.attributes
                0x00000c06       0x39 ..\obj\stm32f4xx_tim.o
 .ARM.attributes
                0x00000c3f       0x39 ..\obj\tcp_out.o
 .ARM.attributes
                0x00000c78       0x39 ..\obj\raw.o
 .ARM.attributes
                0x00000cb1       0x34 c:/gcc_arm/49/bin/../lib/gcc/arm-none-eabi/4.9.3/../../../../arm-none-eabi/lib/armv7e-m/fpu\libm.a(lib_a-s_ceil.o)
 .ARM.attributes
                0x00000ce5       0x34 c:/gcc_arm/49/bin/../lib/gcc/arm-none-eabi/4.9.3/../../../../arm-none-eabi/lib/armv7e-m/fpu\libm.a(lib_a-w_pow.o)
 .ARM.attributes
                0x00000d19       0x34 c:/gcc_arm/49/bin/../lib/gcc/arm-none-eabi/4.9.3/../../../../arm-none-eabi/lib/armv7e-m/fpu\libm.a(lib_a-wf_log10.o)
 .ARM.attributes
                0x00000d4d       0x34 c:/gcc_arm/49/bin/../lib/gcc/arm-none-eabi/4.9.3/../../../../arm-none-eabi/lib/armv7e-m/fpu\libm.a(lib_a-e_pow.o)
 .ARM.attributes
                0x00000d81       0x34 c:/gcc_arm/49/bin/../lib/gcc/arm-none-eabi/4.9.3/../../../../arm-none-eabi/lib/armv7e-m/fpu\libm.a(lib_a-e_sqrt.o)
 .ARM.attributes
                0x00000db5       0x34 c:/gcc_arm/49/bin/../lib/gcc/arm-none-eabi/4.9.3/../../../../arm-none-eabi/lib/armv7e-m/fpu\libm.a(lib_a-ef_log10.o)
 .ARM.attributes
                0x00000de9       0x34 c:/gcc_arm/49/bin/../lib/gcc/arm-none-eabi/4.9.3/../../../../arm-none-eabi/lib/armv7e-m/fpu\libm.a(lib_a-s_fabs.o)
 .ARM.attributes
                0x00000e1d       0x34 c:/gcc_arm/49/bin/../lib/gcc/arm-none-eabi/4.9.3/../../../../arm-none-eabi/lib/armv7e-m/fpu\libm.a(lib_a-s_finite.o)
 .ARM.attributes
                0x00000e51       0x34 c:/gcc_arm/49/bin/../lib/gcc/arm-none-eabi/4.9.3/../../../../arm-none-eabi/lib/armv7e-m/fpu\libm.a(lib_a-s_fpclassify.o)
 .ARM.attributes
                0x00000e85       0x34 c:/gcc_arm/49/bin/../lib/gcc/arm-none-eabi/4.9.3/../../../../arm-none-eabi/lib/armv7e-m/fpu\libm.a(lib_a-s_lib_ver.o)
 .ARM.attributes
                0x00000eb9       0x34 c:/gcc_arm/49/bin/../lib/gcc/arm-none-eabi/4.9.3/../../../../arm-none-eabi/lib/armv7e-m/fpu\libm.a(lib_a-s_matherr.o)
 .ARM.attributes
                0x00000eed       0x34 c:/gcc_arm/49/bin/../lib/gcc/arm-none-eabi/4.9.3/../../../../arm-none-eabi/lib/armv7e-m/fpu\libm.a(lib_a-s_nan.o)
 .ARM.attributes
                0x00000f21       0x34 c:/gcc_arm/49/bin/../lib/gcc/arm-none-eabi/4.9.3/../../../../arm-none-eabi/lib/armv7e-m/fpu\libm.a(lib_a-s_rint.o)
 .ARM.attributes
                0x00000f55       0x34 c:/gcc_arm/49/bin/../lib/gcc/arm-none-eabi/4.9.3/../../../../arm-none-eabi/lib/armv7e-m/fpu\libm.a(lib_a-s_scalbn.o)
 .ARM.attributes
                0x00000f89       0x34 c:/gcc_arm/49/bin/../lib/gcc/arm-none-eabi/4.9.3/../../../../arm-none-eabi/lib/armv7e-m/fpu\libm.a(lib_a-sf_fpclassify.o)
 .ARM.attributes
                0x00000fbd       0x34 c:/gcc_arm/49/bin/../lib/gcc/arm-none-eabi/4.9.3/../../../../arm-none-eabi/lib/armv7e-m/fpu\libm.a(lib_a-ef_log.o)
 .ARM.attributes
                0x00000ff1       0x34 c:/gcc_arm/49/bin/../lib/gcc/arm-none-eabi/4.9.3/../../../../arm-none-eabi/lib/armv7e-m/fpu\libm.a(lib_a-s_copysign.o)
 .ARM.attributes
                0x00001025       0x22 c:/gcc_arm/49/bin/../lib/gcc/arm-none-eabi/4.9.3/armv7e-m/fpu\libgcc.a(_arm_addsubdf3.o)
 .ARM.attributes
                0x00001047       0x22 c:/gcc_arm/49/bin/../lib/gcc/arm-none-eabi/4.9.3/armv7e-m/fpu\libgcc.a(_arm_muldivdf3.o)
 .ARM.attributes
                0x00001069       0x22 c:/gcc_arm/49/bin/../lib/gcc/arm-none-eabi/4.9.3/armv7e-m/fpu\libgcc.a(_arm_cmpdf2.o)
 .ARM.attributes
                0x0000108b       0x22 c:/gcc_arm/49/bin/../lib/gcc/arm-none-eabi/4.9.3/armv7e-m/fpu\libgcc.a(_arm_fixdfsi.o)
 .ARM.attributes
                0x000010ad       0x22 c:/gcc_arm/49/bin/../lib/gcc/arm-none-eabi/4.9.3/armv7e-m/fpu\libgcc.a(_arm_fixunsdfsi.o)
 .ARM.attributes
                0x000010cf       0x22 c:/gcc_arm/49/bin/../lib/gcc/arm-none-eabi/4.9.3/armv7e-m/fpu\libgcc.a(_arm_truncdfsf2.o)
 .ARM.attributes
                0x000010f1       0x34 c:/gcc_arm/49/bin/../lib/gcc/arm-none-eabi/4.9.3/../../../../arm-none-eabi/lib/armv7e-m/fpu\libg.a(lib_a-atoi.o)
 .ARM.attributes
                0x00001125       0x34 c:/gcc_arm/49/bin/../lib/gcc/arm-none-eabi/4.9.3/../../../../arm-none-eabi/lib/armv7e-m/fpu\libg.a(lib_a-errno.o)
 .ARM.attributes
                0x00001159       0x34 c:/gcc_arm/49/bin/../lib/gcc/arm-none-eabi/4.9.3/../../../../arm-none-eabi/lib/armv7e-m/fpu\libg.a(lib_a-impure.o)
 .ARM.attributes
                0x0000118d       0x34 c:/gcc_arm/49/bin/../lib/gcc/arm-none-eabi/4.9.3/../../../../arm-none-eabi/lib/armv7e-m/fpu\libg.a(lib_a-malloc.o)
 .ARM.attributes
                0x000011c1       0x34 c:/gcc_arm/49/bin/../lib/gcc/arm-none-eabi/4.9.3/../../../../arm-none-eabi/lib/armv7e-m/fpu\libg.a(lib_a-mallocr.o)
 .ARM.attributes
                0x000011f5       0x34 c:/gcc_arm/49/bin/../lib/gcc/arm-none-eabi/4.9.3/../../../../arm-none-eabi/lib/armv7e-m/fpu\libg.a(lib_a-memcmp.o)
 .ARM.attributes
                0x00001229       0x20 c:/gcc_arm/49/bin/../lib/gcc/arm-none-eabi/4.9.3/../../../../arm-none-eabi/lib/armv7e-m/fpu\libg.a(lib_a-memcpy.o)
 .ARM.attributes
                0x00001249       0x34 c:/gcc_arm/49/bin/../lib/gcc/arm-none-eabi/4.9.3/../../../../arm-none-eabi/lib/armv7e-m/fpu\libg.a(lib_a-memset.o)
 .ARM.attributes
                0x0000127d       0x34 c:/gcc_arm/49/bin/../lib/gcc/arm-none-eabi/4.9.3/../../../../arm-none-eabi/lib/armv7e-m/fpu\libg.a(lib_a-mlock.o)
 .ARM.attributes
                0x000012b1       0x34 c:/gcc_arm/49/bin/../lib/gcc/arm-none-eabi/4.9.3/../../../../arm-none-eabi/lib/armv7e-m/fpu\libg.a(lib_a-printf.o)
 .ARM.attributes
                0x000012e5       0x34 c:/gcc_arm/49/bin/../lib/gcc/arm-none-eabi/4.9.3/../../../../arm-none-eabi/lib/armv7e-m/fpu\libg.a(lib_a-putchar.o)
 .ARM.attributes
                0x00001319       0x34 c:/gcc_arm/49/bin/../lib/gcc/arm-none-eabi/4.9.3/../../../../arm-none-eabi/lib/armv7e-m/fpu\libg.a(lib_a-puts.o)
 .ARM.attributes
                0x0000134d       0x34 c:/gcc_arm/49/bin/../lib/gcc/arm-none-eabi/4.9.3/../../../../arm-none-eabi/lib/armv7e-m/fpu\libg.a(lib_a-sbrkr.o)
 .ARM.attributes
                0x00001381       0x34 c:/gcc_arm/49/bin/../lib/gcc/arm-none-eabi/4.9.3/../../../../arm-none-eabi/lib/armv7e-m/fpu\libg.a(lib_a-sprintf.o)
 .ARM.attributes
                0x000013b5       0x34 c:/gcc_arm/49/bin/../lib/gcc/arm-none-eabi/4.9.3/../../../../arm-none-eabi/lib/armv7e-m/fpu\libg.a(lib_a-strcat.o)
 .ARM.attributes
                0x000013e9       0x34 c:/gcc_arm/49/bin/../lib/gcc/arm-none-eabi/4.9.3/../../../../arm-none-eabi/lib/armv7e-m/fpu\libg.a(lib_a-strcpy.o)
 .ARM.attributes
                0x0000141d       0x34 c:/gcc_arm/49/bin/../lib/gcc/arm-none-eabi/4.9.3/../../../../arm-none-eabi/lib/armv7e-m/fpu\libg.a(lib_a-strlen.o)
 .ARM.attributes
                0x00001451       0x34 c:/gcc_arm/49/bin/../lib/gcc/arm-none-eabi/4.9.3/../../../../arm-none-eabi/lib/armv7e-m/fpu\libg.a(lib_a-strncmp.o)
 .ARM.attributes
                0x00001485       0x34 c:/gcc_arm/49/bin/../lib/gcc/arm-none-eabi/4.9.3/../../../../arm-none-eabi/lib/armv7e-m/fpu\libg.a(lib_a-strncpy.o)
 .ARM.attributes
                0x000014b9       0x34 c:/gcc_arm/49/bin/../lib/gcc/arm-none-eabi/4.9.3/../../../../arm-none-eabi/lib/armv7e-m/fpu\libg.a(lib_a-strstr.o)
 .ARM.attributes
                0x000014ed       0x34 c:/gcc_arm/49/bin/../lib/gcc/arm-none-eabi/4.9.3/../../../../arm-none-eabi/lib/armv7e-m/fpu\libg.a(lib_a-strtok.o)
 .ARM.attributes
                0x00001521       0x34 c:/gcc_arm/49/bin/../lib/gcc/arm-none-eabi/4.9.3/../../../../arm-none-eabi/lib/armv7e-m/fpu\libg.a(lib_a-strtok_r.o)
 .ARM.attributes
                0x00001555       0x34 c:/gcc_arm/49/bin/../lib/gcc/arm-none-eabi/4.9.3/../../../../arm-none-eabi/lib/armv7e-m/fpu\libg.a(lib_a-strtol.o)
 .ARM.attributes
                0x00001589       0x34 c:/gcc_arm/49/bin/../lib/gcc/arm-none-eabi/4.9.3/../../../../arm-none-eabi/lib/armv7e-m/fpu\libg.a(lib_a-svfprintf.o)
 .ARM.attributes
                0x000015bd       0x34 c:/gcc_arm/49/bin/../lib/gcc/arm-none-eabi/4.9.3/../../../../arm-none-eabi/lib/armv7e-m/fpu\libg.a(lib_a-vfprintf.o)
 .ARM.attributes
                0x000015f1       0x34 c:/gcc_arm/49/bin/../lib/gcc/arm-none-eabi/4.9.3/../../../../arm-none-eabi/lib/armv7e-m/fpu\libg.a(lib_a-wsetup.o)
 .ARM.attributes
                0x00001625       0x34 c:/gcc_arm/49/bin/../lib/gcc/arm-none-eabi/4.9.3/../../../../arm-none-eabi/lib/armv7e-m/fpu\libg.a(lib_a-ctype_.o)
 .ARM.attributes
                0x00001659       0x34 c:/gcc_arm/49/bin/../lib/gcc/arm-none-eabi/4.9.3/../../../../arm-none-eabi/lib/armv7e-m/fpu\libg.a(lib_a-dtoa.o)
 .ARM.attributes
                0x0000168d       0x34 c:/gcc_arm/49/bin/../lib/gcc/arm-none-eabi/4.9.3/../../../../arm-none-eabi/lib/armv7e-m/fpu\libg.a(lib_a-fflush.o)
 .ARM.attributes
                0x000016c1       0x34 c:/gcc_arm/49/bin/../lib/gcc/arm-none-eabi/4.9.3/../../../../arm-none-eabi/lib/armv7e-m/fpu\libg.a(lib_a-findfp.o)
 .ARM.attributes
                0x000016f5       0x34 c:/gcc_arm/49/bin/../lib/gcc/arm-none-eabi/4.9.3/../../../../arm-none-eabi/lib/armv7e-m/fpu\libg.a(lib_a-freer.o)
 .ARM.attributes
                0x00001729       0x34 c:/gcc_arm/49/bin/../lib/gcc/arm-none-eabi/4.9.3/../../../../arm-none-eabi/lib/armv7e-m/fpu\libg.a(lib_a-fvwrite.o)
 .ARM.attributes
                0x0000175d       0x34 c:/gcc_arm/49/bin/../lib/gcc/arm-none-eabi/4.9.3/../../../../arm-none-eabi/lib/armv7e-m/fpu\libg.a(lib_a-fwalk.o)
 .ARM.attributes
                0x00001791       0x34 c:/gcc_arm/49/bin/../lib/gcc/arm-none-eabi/4.9.3/../../../../arm-none-eabi/lib/armv7e-m/fpu\libg.a(lib_a-locale.o)
 .ARM.attributes
                0x000017c5       0x34 c:/gcc_arm/49/bin/../lib/gcc/arm-none-eabi/4.9.3/../../../../arm-none-eabi/lib/armv7e-m/fpu\libg.a(lib_a-makebuf.o)
 .ARM.attributes
                0x000017f9       0x34 c:/gcc_arm/49/bin/../lib/gcc/arm-none-eabi/4.9.3/../../../../arm-none-eabi/lib/armv7e-m/fpu\libg.a(lib_a-memchr.o)
 .ARM.attributes
                0x0000182d       0x34 c:/gcc_arm/49/bin/../lib/gcc/arm-none-eabi/4.9.3/../../../../arm-none-eabi/lib/armv7e-m/fpu\libg.a(lib_a-memmove.o)
 .ARM.attributes
                0x00001861       0x34 c:/gcc_arm/49/bin/../lib/gcc/arm-none-eabi/4.9.3/../../../../arm-none-eabi/lib/armv7e-m/fpu\libg.a(lib_a-mprec.o)
 .ARM.attributes
                0x00001895       0x34 c:/gcc_arm/49/bin/../lib/gcc/arm-none-eabi/4.9.3/../../../../arm-none-eabi/lib/armv7e-m/fpu\libg.a(lib_a-putc.o)
 .ARM.attributes
                0x000018c9       0x34 c:/gcc_arm/49/bin/../lib/gcc/arm-none-eabi/4.9.3/../../../../arm-none-eabi/lib/armv7e-m/fpu\libg.a(lib_a-reallocr.o)
 .ARM.attributes
                0x000018fd       0x34 c:/gcc_arm/49/bin/../lib/gcc/arm-none-eabi/4.9.3/../../../../arm-none-eabi/lib/armv7e-m/fpu\libg.a(lib_a-reent.o)
 .ARM.attributes
                0x00001931       0x34 c:/gcc_arm/49/bin/../lib/gcc/arm-none-eabi/4.9.3/../../../../arm-none-eabi/lib/armv7e-m/fpu\libg.a(lib_a-stdio.o)
 .ARM.attributes
                0x00001965       0x34 c:/gcc_arm/49/bin/../lib/gcc/arm-none-eabi/4.9.3/../../../../arm-none-eabi/lib/armv7e-m/fpu\libg.a(lib_a-strchr.o)
 .ARM.attributes
                0x00001999       0x34 c:/gcc_arm/49/bin/../lib/gcc/arm-none-eabi/4.9.3/../../../../arm-none-eabi/lib/armv7e-m/fpu\libg.a(lib_a-svfiprintf.o)
 .ARM.attributes
                0x000019cd       0x34 c:/gcc_arm/49/bin/../lib/gcc/arm-none-eabi/4.9.3/../../../../arm-none-eabi/lib/armv7e-m/fpu\libg.a(lib_a-vfiprintf.o)
 .ARM.attributes
                0x00001a01       0x34 c:/gcc_arm/49/bin/../lib/gcc/arm-none-eabi/4.9.3/../../../../arm-none-eabi/lib/armv7e-m/fpu\libg.a(lib_a-wbuf.o)
 .ARM.attributes
                0x00001a35       0x34 c:/gcc_arm/49/bin/../lib/gcc/arm-none-eabi/4.9.3/../../../../arm-none-eabi/lib/armv7e-m/fpu\libg.a(lib_a-writer.o)
 .ARM.attributes
                0x00001a69       0x34 c:/gcc_arm/49/bin/../lib/gcc/arm-none-eabi/4.9.3/../../../../arm-none-eabi/lib/armv7e-m/fpu\libg.a(lib_a-callocr.o)
 .ARM.attributes
                0x00001a9d       0x34 c:/gcc_arm/49/bin/../lib/gcc/arm-none-eabi/4.9.3/../../../../arm-none-eabi/lib/armv7e-m/fpu\libg.a(lib_a-closer.o)
 .ARM.attributes
                0x00001ad1       0x34 c:/gcc_arm/49/bin/../lib/gcc/arm-none-eabi/4.9.3/../../../../arm-none-eabi/lib/armv7e-m/fpu\libg.a(lib_a-fclose.o)
 .ARM.attributes
                0x00001b05       0x34 c:/gcc_arm/49/bin/../lib/gcc/arm-none-eabi/4.9.3/../../../../arm-none-eabi/lib/armv7e-m/fpu\libg.a(lib_a-fputwc.o)
 .ARM.attributes
                0x00001b39       0x34 c:/gcc_arm/49/bin/../lib/gcc/arm-none-eabi/4.9.3/../../../../arm-none-eabi/lib/armv7e-m/fpu\libg.a(lib_a-fstatr.o)
 .ARM.attributes
                0x00001b6d       0x34 c:/gcc_arm/49/bin/../lib/gcc/arm-none-eabi/4.9.3/../../../../arm-none-eabi/lib/armv7e-m/fpu\libg.a(lib_a-isattyr.o)
 .ARM.attributes
                0x00001ba1       0x34 c:/gcc_arm/49/bin/../lib/gcc/arm-none-eabi/4.9.3/../../../../arm-none-eabi/lib/armv7e-m/fpu\libg.a(lib_a-lseekr.o)
 .ARM.attributes
                0x00001bd5       0x34 c:/gcc_arm/49/bin/../lib/gcc/arm-none-eabi/4.9.3/../../../../arm-none-eabi/lib/armv7e-m/fpu\libg.a(lib_a-readr.o)
 .ARM.attributes
                0x00001c09       0x34 c:/gcc_arm/49/bin/../lib/gcc/arm-none-eabi/4.9.3/../../../../arm-none-eabi/lib/armv7e-m/fpu\libg.a(lib_a-wcrtomb.o)
 .ARM.attributes
                0x00001c3d       0x34 c:/gcc_arm/49/bin/../lib/gcc/arm-none-eabi/4.9.3/../../../../arm-none-eabi/lib/armv7e-m/fpu\libg.a(lib_a-wctomb_r.o)
 .ARM.attributes
                0x00001c71       0x22 c:/gcc_arm/49/bin/../lib/gcc/arm-none-eabi/4.9.3/armv7e-m/fpu\libgcc.a(_aeabi_uldivmod.o)
 .ARM.attributes
                0x00001c93       0x34 c:/gcc_arm/49/bin/../lib/gcc/arm-none-eabi/4.9.3/armv7e-m/fpu\libgcc.a(bpabi.o)
 .ARM.attributes
                0x00001cc7       0x22 c:/gcc_arm/49/bin/../lib/gcc/arm-none-eabi/4.9.3/armv7e-m/fpu\libgcc.a(_dvmd_tls.o)
 .ARM.attributes
                0x00001ce9       0x34 c:/gcc_arm/49/bin/../lib/gcc/arm-none-eabi/4.9.3/armv7e-m/fpu\libgcc.a(_divdi3.o)
 .ARM.attributes
                0x00001d1d       0x34 c:/gcc_arm/49/bin/../lib/gcc/arm-none-eabi/4.9.3/armv7e-m/fpu\libgcc.a(_udivdi3.o)

.debug_frame    0x00000000     0xa88c
 .debug_frame   0x00000000      0x11c ..\obj\stm32f4xx_syscfg.o
 .debug_frame   0x0000011c       0xf8 ..\obj\mem.o
 .debug_frame   0x00000214      0x148 ..\obj\udp_echoclient.o
 .debug_frame   0x0000035c      0x208 ..\obj\cmdline.o
 .debug_frame   0x00000564      0x498 ..\obj\tcp.o
 .debug_frame   0x000009fc      0x2d4 ..\obj\gsm.o
 .debug_frame   0x00000cd0      0x144 ..\obj\tm_stm32f4_exti.o
 .debug_frame   0x00000e14      0x29c ..\obj\INA219.o
 .debug_frame   0x000010b0       0x2c ..\obj\tm_stm32f4_bkpsram.o
 .debug_frame   0x000010dc      0x110 ..\obj\tcp_in.o
 .debug_frame   0x000011ec      0x490 ..\obj\stm32f4xx_usart.o
 .debug_frame   0x0000167c      0x2cc ..\obj\stm32f4xx_pwr.o
 .debug_frame   0x00001948       0x88 ..\obj\memp.o
 .debug_frame   0x000019d0      0x1c8 ..\obj\autoip.o
 .debug_frame   0x00001b98      0x344 ..\obj\tm_stm32f4_adc.o
 .debug_frame   0x00001edc      0x2a8 ..\obj\tm_stm32f4_gps.o
 .debug_frame   0x00002184      0x138 ..\obj\ip_frag.o
 .debug_frame   0x000022bc      0x134 ..\obj\sfp.o
 .debug_frame   0x000023f0       0x4c ..\obj\startup_stm32f4xx.o
 .debug_frame   0x0000243c      0xc84 ..\obj\stm32f4x7_eth.o
 .debug_frame   0x000030c0       0x38 ..\obj\ip_addr.o
 .debug_frame   0x000030f8       0xa0 ..\obj\inet_chksum.o
 .debug_frame   0x00003198       0x8c ..\obj\main.o
 .debug_frame   0x00003224       0xa8 ..\obj\tm_stm32f4_button.o
 .debug_frame   0x000032cc      0x83c ..\obj\stm32f4xx_rcc.o
 .debug_frame   0x00003b08       0x7c ..\obj\netconf.o
 .debug_frame   0x00003b84      0x3a0 ..\obj\cmdline_functions.o
 .debug_frame   0x00003f24      0x3ec ..\obj\tm_stm32f4_usart.o
 .debug_frame   0x00004310       0xcc ..\obj\stm32f4x7_eth_bsp.o
 .debug_frame   0x000043dc      0x5ec ..\obj\stm32f4xx_adc.o
 .debug_frame   0x000049c8       0xcc ..\obj\ethernetif.o
 .debug_frame   0x00004a94      0x1fc ..\obj\etharp.o
 .debug_frame   0x00004c90      0x1c4 ..\obj\tm_stm32f4_delay.o
 .debug_frame   0x00004e54      0x200 ..\obj\SI7021.o
 .debug_frame   0x00005054      0x1f4 ..\obj\pbuf.o
 .debug_frame   0x00005248      0x11c ..\obj\inet.o
 .debug_frame   0x00005364      0x2d0 ..\obj\tm_stm32f4_i2c.o
 .debug_frame   0x00005634      0x1b4 ..\obj\netif.o
 .debug_frame   0x000057e8      0x23c ..\obj\stm32f4xx_gpio.o
 .debug_frame   0x00005a24       0x7c ..\obj\system_stm32f4xx.o
 .debug_frame   0x00005aa0      0x164 ..\obj\syscalls.o
 .debug_frame   0x00005c04      0x2c0 ..\obj\tm_stm32f4_rtc.o
 .debug_frame   0x00005ec4      0x338 ..\obj\utilities_new.o
 .debug_frame   0x000061fc      0x194 ..\obj\udp.o
 .debug_frame   0x00006390       0xac ..\obj\ip.o
 .debug_frame   0x0000643c      0x580 ..\obj\stm32f4xx_i2c.o
 .debug_frame   0x000069bc      0x148 ..\obj\stm32f4xx_exti.o
 .debug_frame   0x00006b04       0xa8 ..\obj\icmp.o
 .debug_frame   0x00006bac       0xd8 ..\obj\misc.o
 .debug_frame   0x00006c84      0x56c ..\obj\dhcp.o
 .debug_frame   0x000071f0       0xfc ..\obj\tm_stm32f4_low_power.o
 .debug_frame   0x000072ec      0x278 ..\obj\tm_stm32f4_gpio.o
 .debug_frame   0x00007564      0x8b0 ..\obj\stm32f4xx_rtc.o
 .debug_frame   0x00007e14       0xa8 ..\obj\tm_stm32f4_timer_properties.o
 .debug_frame   0x00007ebc      0xe54 ..\obj\stm32f4xx_tim.o
 .debug_frame   0x00008d10      0x214 ..\obj\tcp_out.o
 .debug_frame   0x00008f24      0x144 ..\obj\raw.o
 .debug_frame   0x00009068       0x34 c:/gcc_arm/49/bin/../lib/gcc/arm-none-eabi/4.9.3/../../../../arm-none-eabi/lib/armv7e-m/fpu\libm.a(lib_a-s_ceil.o)
 .debug_frame   0x0000909c       0x74 c:/gcc_arm/49/bin/../lib/gcc/arm-none-eabi/4.9.3/../../../../arm-none-eabi/lib/armv7e-m/fpu\libm.a(lib_a-w_pow.o)
 .debug_frame   0x00009110       0x50 c:/gcc_arm/49/bin/../lib/gcc/arm-none-eabi/4.9.3/../../../../arm-none-eabi/lib/armv7e-m/fpu\libm.a(lib_a-wf_log10.o)
 .debug_frame   0x00009160       0x64 c:/gcc_arm/49/bin/../lib/gcc/arm-none-eabi/4.9.3/../../../../arm-none-eabi/lib/armv7e-m/fpu\libm.a(lib_a-e_pow.o)
 .debug_frame   0x000091c4       0x30 c:/gcc_arm/49/bin/../lib/gcc/arm-none-eabi/4.9.3/../../../../arm-none-eabi/lib/armv7e-m/fpu\libm.a(lib_a-e_sqrt.o)
 .debug_frame   0x000091f4       0x64 c:/gcc_arm/49/bin/../lib/gcc/arm-none-eabi/4.9.3/../../../../arm-none-eabi/lib/armv7e-m/fpu\libm.a(lib_a-ef_log10.o)
 .debug_frame   0x00009258       0x20 c:/gcc_arm/49/bin/../lib/gcc/arm-none-eabi/4.9.3/../../../../arm-none-eabi/lib/armv7e-m/fpu\libm.a(lib_a-s_fabs.o)
 .debug_frame   0x00009278       0x20 c:/gcc_arm/49/bin/../lib/gcc/arm-none-eabi/4.9.3/../../../../arm-none-eabi/lib/armv7e-m/fpu\libm.a(lib_a-s_finite.o)
 .debug_frame   0x00009298       0x34 c:/gcc_arm/49/bin/../lib/gcc/arm-none-eabi/4.9.3/../../../../arm-none-eabi/lib/armv7e-m/fpu\libm.a(lib_a-s_fpclassify.o)
 .debug_frame   0x000092cc       0x20 c:/gcc_arm/49/bin/../lib/gcc/arm-none-eabi/4.9.3/../../../../arm-none-eabi/lib/armv7e-m/fpu\libm.a(lib_a-s_matherr.o)
 .debug_frame   0x000092ec       0x20 c:/gcc_arm/49/bin/../lib/gcc/arm-none-eabi/4.9.3/../../../../arm-none-eabi/lib/armv7e-m/fpu\libm.a(lib_a-s_nan.o)
 .debug_frame   0x0000930c       0x3c c:/gcc_arm/49/bin/../lib/gcc/arm-none-eabi/4.9.3/../../../../arm-none-eabi/lib/armv7e-m/fpu\libm.a(lib_a-s_rint.o)
 .debug_frame   0x00009348       0x2c c:/gcc_arm/49/bin/../lib/gcc/arm-none-eabi/4.9.3/../../../../arm-none-eabi/lib/armv7e-m/fpu\libm.a(lib_a-s_scalbn.o)
 .debug_frame   0x00009374       0x20 c:/gcc_arm/49/bin/../lib/gcc/arm-none-eabi/4.9.3/../../../../arm-none-eabi/lib/armv7e-m/fpu\libm.a(lib_a-sf_fpclassify.o)
 .debug_frame   0x00009394       0x4c c:/gcc_arm/49/bin/../lib/gcc/arm-none-eabi/4.9.3/../../../../arm-none-eabi/lib/armv7e-m/fpu\libm.a(lib_a-ef_log.o)
 .debug_frame   0x000093e0       0x20 c:/gcc_arm/49/bin/../lib/gcc/arm-none-eabi/4.9.3/../../../../arm-none-eabi/lib/armv7e-m/fpu\libm.a(lib_a-s_copysign.o)
 .debug_frame   0x00009400       0x30 c:/gcc_arm/49/bin/../lib/gcc/arm-none-eabi/4.9.3/../../../../arm-none-eabi/lib/armv7e-m/fpu\libg.a(lib_a-atoi.o)
 .debug_frame   0x00009430       0x20 c:/gcc_arm/49/bin/../lib/gcc/arm-none-eabi/4.9.3/../../../../arm-none-eabi/lib/armv7e-m/fpu\libg.a(lib_a-errno.o)
 .debug_frame   0x00009450       0x30 c:/gcc_arm/49/bin/../lib/gcc/arm-none-eabi/4.9.3/../../../../arm-none-eabi/lib/armv7e-m/fpu\libg.a(lib_a-malloc.o)
 .debug_frame   0x00009480       0x58 c:/gcc_arm/49/bin/../lib/gcc/arm-none-eabi/4.9.3/../../../../arm-none-eabi/lib/armv7e-m/fpu\libg.a(lib_a-mallocr.o)
 .debug_frame   0x000094d8       0x38 c:/gcc_arm/49/bin/../lib/gcc/arm-none-eabi/4.9.3/../../../../arm-none-eabi/lib/armv7e-m/fpu\libg.a(lib_a-memcmp.o)
 .debug_frame   0x00009510       0x34 c:/gcc_arm/49/bin/../lib/gcc/arm-none-eabi/4.9.3/../../../../arm-none-eabi/lib/armv7e-m/fpu\libg.a(lib_a-memset.o)
 .debug_frame   0x00009544       0x30 c:/gcc_arm/49/bin/../lib/gcc/arm-none-eabi/4.9.3/../../../../arm-none-eabi/lib/armv7e-m/fpu\libg.a(lib_a-mlock.o)
 .debug_frame   0x00009574       0x74 c:/gcc_arm/49/bin/../lib/gcc/arm-none-eabi/4.9.3/../../../../arm-none-eabi/lib/armv7e-m/fpu\libg.a(lib_a-printf.o)
 .debug_frame   0x000095e8       0x30 c:/gcc_arm/49/bin/../lib/gcc/arm-none-eabi/4.9.3/../../../../arm-none-eabi/lib/armv7e-m/fpu\libg.a(lib_a-putchar.o)
 .debug_frame   0x00009618       0x48 c:/gcc_arm/49/bin/../lib/gcc/arm-none-eabi/4.9.3/../../../../arm-none-eabi/lib/armv7e-m/fpu\libg.a(lib_a-puts.o)
 .debug_frame   0x00009660       0x2c c:/gcc_arm/49/bin/../lib/gcc/arm-none-eabi/4.9.3/../../../../arm-none-eabi/lib/armv7e-m/fpu\libg.a(lib_a-sbrkr.o)
 .debug_frame   0x0000968c       0x84 c:/gcc_arm/49/bin/../lib/gcc/arm-none-eabi/4.9.3/../../../../arm-none-eabi/lib/armv7e-m/fpu\libg.a(lib_a-sprintf.o)
 .debug_frame   0x00009710       0x28 c:/gcc_arm/49/bin/../lib/gcc/arm-none-eabi/4.9.3/../../../../arm-none-eabi/lib/armv7e-m/fpu\libg.a(lib_a-strcat.o)
 .debug_frame   0x00009738       0x20 c:/gcc_arm/49/bin/../lib/gcc/arm-none-eabi/4.9.3/../../../../arm-none-eabi/lib/armv7e-m/fpu\libg.a(lib_a-strcpy.o)
 .debug_frame   0x00009758       0x20 c:/gcc_arm/49/bin/../lib/gcc/arm-none-eabi/4.9.3/../../../../arm-none-eabi/lib/armv7e-m/fpu\libg.a(lib_a-strlen.o)
 .debug_frame   0x00009778       0x54 c:/gcc_arm/49/bin/../lib/gcc/arm-none-eabi/4.9.3/../../../../arm-none-eabi/lib/armv7e-m/fpu\libg.a(lib_a-strncmp.o)
 .debug_frame   0x000097cc       0x34 c:/gcc_arm/49/bin/../lib/gcc/arm-none-eabi/4.9.3/../../../../arm-none-eabi/lib/armv7e-m/fpu\libg.a(lib_a-strncpy.o)
 .debug_frame   0x00009800       0xd8 c:/gcc_arm/49/bin/../lib/gcc/arm-none-eabi/4.9.3/../../../../arm-none-eabi/lib/armv7e-m/fpu\libg.a(lib_a-strstr.o)
 .debug_frame   0x000098d8       0x20 c:/gcc_arm/49/bin/../lib/gcc/arm-none-eabi/4.9.3/../../../../arm-none-eabi/lib/armv7e-m/fpu\libg.a(lib_a-strtok.o)
 .debug_frame   0x000098f8       0x48 c:/gcc_arm/49/bin/../lib/gcc/arm-none-eabi/4.9.3/../../../../arm-none-eabi/lib/armv7e-m/fpu\libg.a(lib_a-strtok_r.o)
 .debug_frame   0x00009940       0x54 c:/gcc_arm/49/bin/../lib/gcc/arm-none-eabi/4.9.3/../../../../arm-none-eabi/lib/armv7e-m/fpu\libg.a(lib_a-strtol.o)
 .debug_frame   0x00009994       0x40 c:/gcc_arm/49/bin/../lib/gcc/arm-none-eabi/4.9.3/../../../../arm-none-eabi/lib/armv7e-m/fpu\libg.a(lib_a-svfprintf.o)
 .debug_frame   0x000099d4       0x90 c:/gcc_arm/49/bin/../lib/gcc/arm-none-eabi/4.9.3/../../../../arm-none-eabi/lib/armv7e-m/fpu\libg.a(lib_a-vfprintf.o)
 .debug_frame   0x00009a64       0x2c c:/gcc_arm/49/bin/../lib/gcc/arm-none-eabi/4.9.3/../../../../arm-none-eabi/lib/armv7e-m/fpu\libg.a(lib_a-wsetup.o)
 .debug_frame   0x00009a90       0x88 c:/gcc_arm/49/bin/../lib/gcc/arm-none-eabi/4.9.3/../../../../arm-none-eabi/lib/armv7e-m/fpu\libg.a(lib_a-dtoa.o)
 .debug_frame   0x00009b18       0x6c c:/gcc_arm/49/bin/../lib/gcc/arm-none-eabi/4.9.3/../../../../arm-none-eabi/lib/armv7e-m/fpu\libg.a(lib_a-fflush.o)
 .debug_frame   0x00009b84      0x124 c:/gcc_arm/49/bin/../lib/gcc/arm-none-eabi/4.9.3/../../../../arm-none-eabi/lib/armv7e-m/fpu\libg.a(lib_a-findfp.o)
 .debug_frame   0x00009ca8       0x74 c:/gcc_arm/49/bin/../lib/gcc/arm-none-eabi/4.9.3/../../../../arm-none-eabi/lib/armv7e-m/fpu\libg.a(lib_a-freer.o)
 .debug_frame   0x00009d1c       0x68 c:/gcc_arm/49/bin/../lib/gcc/arm-none-eabi/4.9.3/../../../../arm-none-eabi/lib/armv7e-m/fpu\libg.a(lib_a-fvwrite.o)
 .debug_frame   0x00009d84       0x54 c:/gcc_arm/49/bin/../lib/gcc/arm-none-eabi/4.9.3/../../../../arm-none-eabi/lib/armv7e-m/fpu\libg.a(lib_a-fwalk.o)
 .debug_frame   0x00009dd8       0x9c c:/gcc_arm/49/bin/../lib/gcc/arm-none-eabi/4.9.3/../../../../arm-none-eabi/lib/armv7e-m/fpu\libg.a(lib_a-locale.o)
 .debug_frame   0x00009e74       0x48 c:/gcc_arm/49/bin/../lib/gcc/arm-none-eabi/4.9.3/../../../../arm-none-eabi/lib/armv7e-m/fpu\libg.a(lib_a-makebuf.o)
 .debug_frame   0x00009ebc       0x3c c:/gcc_arm/49/bin/../lib/gcc/arm-none-eabi/4.9.3/../../../../arm-none-eabi/lib/armv7e-m/fpu\libg.a(lib_a-memchr.o)
 .debug_frame   0x00009ef8       0x30 c:/gcc_arm/49/bin/../lib/gcc/arm-none-eabi/4.9.3/../../../../arm-none-eabi/lib/armv7e-m/fpu\libg.a(lib_a-memmove.o)
 .debug_frame   0x00009f28      0x268 c:/gcc_arm/49/bin/../lib/gcc/arm-none-eabi/4.9.3/../../../../arm-none-eabi/lib/armv7e-m/fpu\libg.a(lib_a-mprec.o)
 .debug_frame   0x0000a190       0x68 c:/gcc_arm/49/bin/../lib/gcc/arm-none-eabi/4.9.3/../../../../arm-none-eabi/lib/armv7e-m/fpu\libg.a(lib_a-putc.o)
 .debug_frame   0x0000a1f8       0x60 c:/gcc_arm/49/bin/../lib/gcc/arm-none-eabi/4.9.3/../../../../arm-none-eabi/lib/armv7e-m/fpu\libg.a(lib_a-reallocr.o)
 .debug_frame   0x0000a258       0x58 c:/gcc_arm/49/bin/../lib/gcc/arm-none-eabi/4.9.3/../../../../arm-none-eabi/lib/armv7e-m/fpu\libg.a(lib_a-reent.o)
 .debug_frame   0x0000a2b0       0x88 c:/gcc_arm/49/bin/../lib/gcc/arm-none-eabi/4.9.3/../../../../arm-none-eabi/lib/armv7e-m/fpu\libg.a(lib_a-stdio.o)
 .debug_frame   0x0000a338       0x4c c:/gcc_arm/49/bin/../lib/gcc/arm-none-eabi/4.9.3/../../../../arm-none-eabi/lib/armv7e-m/fpu\libg.a(lib_a-strchr.o)
 .debug_frame   0x0000a384       0x78 c:/gcc_arm/49/bin/../lib/gcc/arm-none-eabi/4.9.3/../../../../arm-none-eabi/lib/armv7e-m/fpu\libg.a(lib_a-svfiprintf.o)
 .debug_frame   0x0000a3fc       0xd8 c:/gcc_arm/49/bin/../lib/gcc/arm-none-eabi/4.9.3/../../../../arm-none-eabi/lib/armv7e-m/fpu\libg.a(lib_a-vfiprintf.o)
 .debug_frame   0x0000a4d4       0x3c c:/gcc_arm/49/bin/../lib/gcc/arm-none-eabi/4.9.3/../../../../arm-none-eabi/lib/armv7e-m/fpu\libg.a(lib_a-wbuf.o)
 .debug_frame   0x0000a510       0x2c c:/gcc_arm/49/bin/../lib/gcc/arm-none-eabi/4.9.3/../../../../arm-none-eabi/lib/armv7e-m/fpu\libg.a(lib_a-writer.o)
 .debug_frame   0x0000a53c       0x28 c:/gcc_arm/49/bin/../lib/gcc/arm-none-eabi/4.9.3/../../../../arm-none-eabi/lib/armv7e-m/fpu\libg.a(lib_a-callocr.o)
 .debug_frame   0x0000a564       0x2c c:/gcc_arm/49/bin/../lib/gcc/arm-none-eabi/4.9.3/../../../../arm-none-eabi/lib/armv7e-m/fpu\libg.a(lib_a-closer.o)
 .debug_frame   0x0000a590       0x44 c:/gcc_arm/49/bin/../lib/gcc/arm-none-eabi/4.9.3/../../../../arm-none-eabi/lib/armv7e-m/fpu\libg.a(lib_a-fclose.o)
 .debug_frame   0x0000a5d4       0x84 c:/gcc_arm/49/bin/../lib/gcc/arm-none-eabi/4.9.3/../../../../arm-none-eabi/lib/armv7e-m/fpu\libg.a(lib_a-fputwc.o)
 .debug_frame   0x0000a658       0x2c c:/gcc_arm/49/bin/../lib/gcc/arm-none-eabi/4.9.3/../../../../arm-none-eabi/lib/armv7e-m/fpu\libg.a(lib_a-fstatr.o)
 .debug_frame   0x0000a684       0x2c c:/gcc_arm/49/bin/../lib/gcc/arm-none-eabi/4.9.3/../../../../arm-none-eabi/lib/armv7e-m/fpu\libg.a(lib_a-isattyr.o)
 .debug_frame   0x0000a6b0       0x2c c:/gcc_arm/49/bin/../lib/gcc/arm-none-eabi/4.9.3/../../../../arm-none-eabi/lib/armv7e-m/fpu\libg.a(lib_a-lseekr.o)
 .debug_frame   0x0000a6dc       0x2c c:/gcc_arm/49/bin/../lib/gcc/arm-none-eabi/4.9.3/../../../../arm-none-eabi/lib/armv7e-m/fpu\libg.a(lib_a-readr.o)
 .debug_frame   0x0000a708       0x60 c:/gcc_arm/49/bin/../lib/gcc/arm-none-eabi/4.9.3/../../../../arm-none-eabi/lib/armv7e-m/fpu\libg.a(lib_a-wcrtomb.o)
 .debug_frame   0x0000a768       0x48 c:/gcc_arm/49/bin/../lib/gcc/arm-none-eabi/4.9.3/../../../../arm-none-eabi/lib/armv7e-m/fpu\libg.a(lib_a-wctomb_r.o)
 .debug_frame   0x0000a7b0       0x28 c:/gcc_arm/49/bin/../lib/gcc/arm-none-eabi/4.9.3/armv7e-m/fpu\libgcc.a(_aeabi_uldivmod.o)
 .debug_frame   0x0000a7d8       0x50 c:/gcc_arm/49/bin/../lib/gcc/arm-none-eabi/4.9.3/armv7e-m/fpu\libgcc.a(bpabi.o)
 .debug_frame   0x0000a828       0x34 c:/gcc_arm/49/bin/../lib/gcc/arm-none-eabi/4.9.3/armv7e-m/fpu\libgcc.a(_divdi3.o)
 .debug_frame   0x0000a85c       0x30 c:/gcc_arm/49/bin/../lib/gcc/arm-none-eabi/4.9.3/armv7e-m/fpu\libgcc.a(_udivdi3.o)
